(dp0
S'METTS MARK'
p1
(dp2
S'to_messages'
p3
I807
sS'deferral_payments'
p4
S'NaN'
p5
sS'expenses'
p6
I94299
sS'mail_content_deleted_items'
p7
I9
sS'poi'
p8
I00
sS'deferred_income'
p9
g5
sS'email_address'
p10
S'mark.metts@enron.com'
p11
sS'long_term_incentive'
p12
g5
sS'mail_content_inbox'
p13
I3
sS'restricted_stock_deferred'
p14
g5
sS'mail_content_notes_inbox'
p15
I2
sS'shared_receipt_with_poi'
p16
I702
sS'loan_advances'
p17
g5
sS'from_messages'
p18
I29
sS'other'
p19
I1740
sS'director_fees'
p20
g5
sS'bonus'
p21
I600000
sS'total_stock_value'
p22
I585062
sS'from_poi_to_this_person'
p23
I38
sS'from_this_person_to_poi'
p24
I1
sS'restricted_stock'
p25
I585062
sS'salary'
p26
I365788
sS'total_payments'
p27
I1061827
sS'mail_content_discussion_threads'
p28
I2
sS'exercised_stock_options'
p29
g5
sS'mail_content_all_documents'
p30
I3
ssS'BAXTER JOHN C'
p31
(dp32
g3
g5
sg4
I1295738
sg6
I11200
sS'mail_content_deleted_items'
p33
I0
sg8
I00
sg9
I-1386055
sg10
g5
sg12
I1586055
sS'mail_content_inbox'
p34
I0
sg14
g5
sS'mail_content_notes_inbox'
p35
I0
sg16
g5
sg17
g5
sg18
g5
sg19
I2660303
sg20
g5
sg21
I1200000
sg22
I10623258
sg23
g5
sg24
g5
sg25
I3942714
sg26
I267102
sg27
I5634343
sS'mail_content_discussion_threads'
p36
I0
sg29
I6680544
sS'mail_content_all_documents'
p37
I0
ssS'ELLIOTT STEVEN'
p38
(dp39
g3
g5
sg4
g5
sg6
I78552
sS'mail_content_deleted_items'
p40
I0
sg8
I00
sg9
I-400729
sg10
S'steven.elliott@enron.com'
p41
sg12
g5
sS'mail_content_inbox'
p42
I0
sg14
g5
sS'mail_content_notes_inbox'
p43
I0
sg16
g5
sg17
g5
sg18
g5
sg19
I12961
sg20
g5
sg21
I350000
sg22
I6678735
sg23
g5
sg24
g5
sg25
I1788391
sg26
I170941
sg27
I211725
sS'mail_content_discussion_threads'
p44
I0
sg29
I4890344
sS'mail_content_all_documents'
p45
I0
ssS'CORDES WILLIAM R'
p46
(dp47
g3
I764
sg4
g5
sg6
g5
sS'mail_content_deleted_items'
p48
I1
sg8
I00
sg9
g5
sg10
S'bill.cordes@enron.com'
p49
sg12
g5
sS'mail_content_inbox'
p50
I0
sg14
g5
sS'mail_content_notes_inbox'
p51
I0
sg16
I58
sg17
g5
sg18
I12
sg19
g5
sg20
g5
sg21
g5
sg22
I1038185
sg23
I10
sg24
I0
sg25
I386335
sg26
g5
sg27
g5
sS'mail_content_discussion_threads'
p52
I0
sg29
I651850
sS'mail_content_all_documents'
p53
I2
ssS'HANNON KEVIN P'
p54
(dp55
g3
I1045
sg4
g5
sg6
I34039
sS'mail_content_deleted_items'
p56
I2
sg8
I01
sg9
I-3117011
sg10
S'kevin.hannon@enron.com'
p57
sg12
I1617011
sS'mail_content_inbox'
p58
I5
sg14
g5
sS'mail_content_notes_inbox'
p59
I4
sg16
I1035
sg17
g5
sg18
I32
sg19
I11350
sg20
g5
sg21
I1500000
sg22
I6391065
sg23
I32
sg24
I21
sg25
I853064
sg26
I243293
sg27
I288682
sS'mail_content_discussion_threads'
p60
I5
sg29
I5538001
sS'mail_content_all_documents'
p61
I5
ssS'MORDAUNT KRISTINA M'
p62
(dp63
g3
g5
sg4
g5
sg6
I35018
sS'mail_content_deleted_items'
p64
I0
sg8
I00
sg9
g5
sg10
S'kristina.mordaunt@enron.com'
p65
sg12
g5
sS'mail_content_inbox'
p66
I0
sg14
g5
sS'mail_content_notes_inbox'
p67
I0
sg16
g5
sg17
g5
sg18
g5
sg19
I1411
sg20
g5
sg21
I325000
sg22
I208510
sg23
g5
sg24
g5
sg25
I208510
sg26
I267093
sg27
I628522
sS'mail_content_discussion_threads'
p68
I0
sg29
g5
sS'mail_content_all_documents'
p69
I0
ssS'MEYER ROCKFORD G'
p70
(dp71
g3
I232
sg4
I1848227
sg6
g5
sS'mail_content_deleted_items'
p72
I0
sg8
I00
sg9
g5
sg10
S'rockford.meyer@enron.com'
p73
sg12
g5
sS'mail_content_inbox'
p74
I0
sg14
g5
sS'mail_content_notes_inbox'
p75
I1
sg16
I22
sg17
g5
sg18
I28
sg19
g5
sg20
g5
sg21
g5
sg22
I955873
sg23
I0
sg24
I0
sg25
I462384
sg26
g5
sg27
I1848227
sS'mail_content_discussion_threads'
p76
I12
sg29
I493489
sS'mail_content_all_documents'
p77
I12
ssS'MCMAHON JEFFREY'
p78
(dp79
g3
I2355
sg4
g5
sg6
I137108
sS'mail_content_deleted_items'
p80
I2
sg8
I00
sg9
g5
sg10
S'jeffrey.mcmahon@enron.com'
p81
sg12
I694862
sS'mail_content_inbox'
p82
I10
sg14
g5
sS'mail_content_notes_inbox'
p83
I6
sg16
I2228
sg17
g5
sg18
I48
sg19
I297353
sg20
g5
sg21
I2600000
sg22
I1662855
sg23
I58
sg24
I26
sg25
I558801
sg26
I370448
sg27
I4099771
sS'mail_content_discussion_threads'
p84
I7
sg29
I1104054
sS'mail_content_all_documents'
p85
I9
ssS'HORTON STANLEY C'
p86
(dp87
g3
I2350
sg4
I3131860
sg6
g5
sS'mail_content_deleted_items'
p88
I172
sg8
I00
sg9
g5
sg10
S'stanley.horton@enron.com'
p89
sg12
g5
sS'mail_content_inbox'
p90
I20
sg14
g5
sS'mail_content_notes_inbox'
p91
I0
sg16
I1074
sg17
g5
sg18
I1073
sg19
g5
sg20
g5
sg21
g5
sg22
I7256648
sg23
I44
sg24
I15
sg25
I2046079
sg26
g5
sg27
I3131860
sS'mail_content_discussion_threads'
p92
I36
sg29
I5210569
sS'mail_content_all_documents'
p93
I233
ssS'PIPER GREGORY F'
p94
(dp95
g3
I1238
sg4
I1130036
sg6
I43057
sS'mail_content_deleted_items'
p96
I58
sg8
I00
sg9
I-33333
sg10
S'greg.piper@enron.com'
p97
sg12
g5
sS'mail_content_inbox'
p98
I45
sg14
I-409554
sS'mail_content_notes_inbox'
p99
I16
sg16
I742
sg17
g5
sg18
I222
sg19
I778
sg20
g5
sg21
I400000
sg22
I880290
sg23
I61
sg24
I48
sg25
I409554
sg26
I197091
sg27
I1737629
sS'mail_content_discussion_threads'
p100
I22
sg29
I880290
sS'mail_content_all_documents'
p101
I29
ssS'HUMPHREY GENE E'
p102
(dp103
g3
I128
sg4
I2964506
sg6
I4994
sS'mail_content_deleted_items'
p104
I1
sg8
I00
sg9
g5
sg10
S'gene.humphrey@enron.com'
p105
sg12
g5
sS'mail_content_inbox'
p106
I2
sg14
g5
sS'mail_content_notes_inbox'
p107
I3
sg16
I119
sg17
g5
sg18
I17
sg19
g5
sg20
g5
sg21
g5
sg22
I2282768
sg23
I10
sg24
I17
sg25
g5
sg26
I130724
sg27
I3100224
sS'mail_content_discussion_threads'
p108
I3
sg29
I2282768
sS'mail_content_all_documents'
p109
I3
ssS'UMANOFF ADAM S'
p110
(dp111
g3
I111
sg4
g5
sg6
I53122
sS'mail_content_deleted_items'
p112
I10
sg8
I00
sg9
g5
sg10
S'adam.umanoff@enron.com'
p113
sg12
g5
sS'mail_content_inbox'
p114
I5
sg14
g5
sS'mail_content_notes_inbox'
p115
I0
sg16
I41
sg17
g5
sg18
I18
sg19
g5
sg20
g5
sg21
I788750
sg22
g5
sg23
I12
sg24
I0
sg25
g5
sg26
I288589
sg27
I1130461
sS'mail_content_discussion_threads'
p116
I0
sg29
g5
sS'mail_content_all_documents'
p117
I0
ssS'BLACHMAN JEREMY M'
p118
(dp119
g3
I2475
sg4
g5
sg6
I84208
sS'mail_content_deleted_items'
p120
I4
sg8
I00
sg9
g5
sg10
S'jeremy.blachman@enron.com'
p121
sg12
I831809
sS'mail_content_inbox'
p122
I5
sg14
g5
sS'mail_content_notes_inbox'
p123
I0
sg16
I2326
sg17
g5
sg18
I14
sg19
I272
sg20
g5
sg21
I850000
sg22
I954354
sg23
I25
sg24
I2
sg25
I189041
sg26
I248546
sg27
I2014835
sS'mail_content_discussion_threads'
p124
I0
sg29
I765313
sS'mail_content_all_documents'
p125
I0
ssS'SUNDE MARTIN'
p126
(dp127
g3
I2647
sg4
g5
sg6
g5
sS'mail_content_deleted_items'
p128
I0
sg8
I00
sg9
g5
sg10
S'marty.sunde@enron.com'
p129
sg12
I476451
sS'mail_content_inbox'
p130
I0
sg14
g5
sS'mail_content_notes_inbox'
p131
I5
sg16
I2565
sg17
g5
sg18
I38
sg19
I111122
sg20
g5
sg21
I700000
sg22
I698920
sg23
I37
sg24
I13
sg25
I698920
sg26
I257486
sg27
I1545059
sS'mail_content_discussion_threads'
p132
I4
sg29
g5
sS'mail_content_all_documents'
p133
I10
ssS'GIBBS DANA R'
p134
(dp135
g3
I169
sg4
I504610
sg6
g5
sS'mail_content_deleted_items'
p136
I0
sg8
I00
sg9
g5
sg10
S'dana.gibbs@enron.com'
p137
sg12
I461912
sS'mail_content_inbox'
p138
I0
sg14
g5
sS'mail_content_notes_inbox'
p139
I0
sg16
I23
sg17
g5
sg18
I12
sg19
g5
sg20
g5
sg21
g5
sg22
I2218275
sg23
I0
sg24
I0
sg25
g5
sg26
g5
sg27
I966522
sS'mail_content_discussion_threads'
p140
I5
sg29
I2218275
sS'mail_content_all_documents'
p141
I5
ssS'LOWRY CHARLES P'
p142
(dp143
g3
g5
sg4
g5
sg6
g5
sS'mail_content_deleted_items'
p144
I0
sg8
I00
sg9
g5
sg10
g5
sg12
g5
sS'mail_content_inbox'
p145
I0
sg14
I-153686
sS'mail_content_notes_inbox'
p146
I0
sg16
g5
sg17
g5
sg18
g5
sg19
g5
sg20
g5
sg21
g5
sg22
I372205
sg23
g5
sg24
g5
sg25
I153686
sg26
g5
sg27
g5
sS'mail_content_discussion_threads'
p147
I0
sg29
I372205
sS'mail_content_all_documents'
p148
I0
ssS'COLWELL WESLEY'
p149
(dp150
g3
I1758
sg4
I27610
sg6
I16514
sS'mail_content_deleted_items'
p151
I1
sg8
I01
sg9
I-144062
sg10
S'wes.colwell@enron.com'
p152
sg12
g5
sS'mail_content_inbox'
p153
I4
sg14
g5
sS'mail_content_notes_inbox'
p154
I4
sg16
I1132
sg17
g5
sg18
I40
sg19
I101740
sg20
g5
sg21
I1200000
sg22
I698242
sg23
I240
sg24
I11
sg25
I698242
sg26
I288542
sg27
I1490344
sS'mail_content_discussion_threads'
p155
I3
sg29
g5
sS'mail_content_all_documents'
p156
I5
ssS'MULLER MARK S'
p157
(dp158
g3
I136
sg4
I842924
sg6
g5
sS'mail_content_deleted_items'
p159
I1
sg8
I00
sg9
I-719000
sg10
S's..muller@enron.com'
p160
sg12
I1725545
sS'mail_content_inbox'
p161
I6
sg14
g5
sS'mail_content_notes_inbox'
p162
I0
sg16
I114
sg17
g5
sg18
I16
sg19
I947
sg20
g5
sg21
I1100000
sg22
I1416848
sg23
I12
sg24
I0
sg25
I360528
sg26
I251654
sg27
I3202070
sS'mail_content_discussion_threads'
p163
I0
sg29
I1056320
sS'mail_content_all_documents'
p164
I0
ssS'JACKSON CHARLENE R'
p165
(dp166
g3
I258
sg4
g5
sg6
I10181
sS'mail_content_deleted_items'
p167
I0
sg8
I00
sg9
g5
sg10
S'charlene.jackson@enron.com'
p168
sg12
g5
sS'mail_content_inbox'
p169
I0
sg14
g5
sS'mail_content_notes_inbox'
p170
I2
sg16
I117
sg17
g5
sg18
I56
sg19
I2435
sg20
g5
sg21
I250000
sg22
I725735
sg23
I25
sg24
I19
sg25
I540672
sg26
I288558
sg27
I551174
sS'mail_content_discussion_threads'
p171
I15
sg29
I185063
sS'mail_content_all_documents'
p172
I18
ssS'WESTFAHL RICHARD K'
p173
(dp174
g3
g5
sg4
g5
sg6
I51870
sS'mail_content_deleted_items'
p175
I0
sg8
I00
sg9
I-10800
sg10
S'dick.westfahl@enron.com'
p176
sg12
I256191
sS'mail_content_inbox'
p177
I0
sg14
g5
sS'mail_content_notes_inbox'
p178
I0
sg16
g5
sg17
g5
sg18
g5
sg19
I401130
sg20
g5
sg21
g5
sg22
I384930
sg23
g5
sg24
g5
sg25
I384930
sg26
I63744
sg27
I762135
sS'mail_content_discussion_threads'
p179
I0
sg29
g5
sS'mail_content_all_documents'
p180
I0
ssS'WALTERS GARETH W'
p181
(dp182
g3
g5
sg4
I53625
sg6
I33785
sS'mail_content_deleted_items'
p183
I0
sg8
I00
sg9
g5
sg10
g5
sg12
g5
sS'mail_content_inbox'
p184
I0
sg14
g5
sS'mail_content_notes_inbox'
p185
I0
sg16
g5
sg17
g5
sg18
g5
sg19
g5
sg20
g5
sg21
g5
sg22
I1030329
sg23
g5
sg24
g5
sg25
g5
sg26
g5
sg27
I87410
sS'mail_content_discussion_threads'
p186
I0
sg29
I1030329
sS'mail_content_all_documents'
p187
I0
ssS'WALLS JR ROBERT H'
p188
(dp189
g3
I671
sg4
g5
sg6
I50936
sS'mail_content_deleted_items'
p190
I26
sg8
I00
sg9
g5
sg10
S'rob.walls@enron.com'
p191
sg12
I540751
sS'mail_content_inbox'
p192
I27
sg14
g5
sS'mail_content_notes_inbox'
p193
I26
sg16
I215
sg17
g5
sg18
I146
sg19
I2
sg20
g5
sg21
I850000
sg22
I5898997
sg23
I17
sg24
I0
sg25
I1552453
sg26
I357091
sg27
I1798780
sS'mail_content_discussion_threads'
p194
I22
sg29
I4346544
sS'mail_content_all_documents'
p195
I29
ssS'KITCHEN LOUISE'
p196
(dp197
g3
I8305
sg4
g5
sg6
I5774
sS'mail_content_deleted_items'
p198
I102
sg8
I00
sg9
g5
sg10
S'louise.kitchen@enron.com'
p199
sg12
g5
sS'mail_content_inbox'
p200
I115
sg14
g5
sS'mail_content_notes_inbox'
p201
I67
sg16
I3669
sg17
g5
sg18
I1728
sg19
I93925
sg20
g5
sg21
I3100000
sg22
I547143
sg23
I251
sg24
I194
sg25
I466101
sg26
I271442
sg27
I3471141
sS'mail_content_discussion_threads'
p202
I30
sg29
I81042
sS'mail_content_all_documents'
p203
I133
ssS'CHAN RONNIE'
p204
(dp205
g3
g5
sg4
g5
sg6
g5
sS'mail_content_deleted_items'
p206
I0
sg8
I00
sg9
I-98784
sg10
g5
sg12
g5
sS'mail_content_inbox'
p207
I0
sg14
I-32460
sS'mail_content_notes_inbox'
p208
I0
sg16
g5
sg17
g5
sg18
g5
sg19
g5
sg20
I98784
sg21
g5
sg22
g5
sg23
g5
sg24
g5
sg25
I32460
sg26
g5
sg27
g5
sS'mail_content_discussion_threads'
p209
I0
sg29
g5
sS'mail_content_all_documents'
p210
I0
ssS'BELFER ROBERT'
p211
(dp212
g3
g5
sg4
I-102500
sg6
g5
sS'mail_content_deleted_items'
p213
I0
sg8
I00
sg9
g5
sg10
g5
sg12
g5
sS'mail_content_inbox'
p214
I0
sg14
I44093
sS'mail_content_notes_inbox'
p215
I0
sg16
g5
sg17
g5
sg18
g5
sg19
g5
sg20
I3285
sg21
g5
sg22
I-44093
sg23
g5
sg24
g5
sg25
g5
sg26
g5
sg27
I102500
sS'mail_content_discussion_threads'
p216
I0
sg29
I3285
sS'mail_content_all_documents'
p217
I0
ssS'SHANKMAN JEFFREY A'
p218
(dp219
g3
I3221
sg4
g5
sg6
I178979
sS'mail_content_deleted_items'
p220
I0
sg8
I00
sg9
g5
sg10
S'jeffrey.shankman@enron.com'
p221
sg12
I554422
sS'mail_content_inbox'
p222
I0
sg14
g5
sS'mail_content_notes_inbox'
p223
I14
sg16
I1730
sg17
g5
sg18
I2681
sg19
I1191
sg20
g5
sg21
I2000000
sg22
I2072035
sg23
I94
sg24
I83
sg25
I630137
sg26
I304110
sg27
I3038702
sS'mail_content_discussion_threads'
p224
I534
sg29
I1441898
sS'mail_content_all_documents'
p225
I1075
ssS'WODRASKA JOHN'
p226
(dp227
g3
g5
sg4
g5
sg6
g5
sS'mail_content_deleted_items'
p228
I0
sg8
I00
sg9
g5
sg10
S'john.wodraska@enron.com'
p229
sg12
g5
sS'mail_content_inbox'
p230
I0
sg14
g5
sS'mail_content_notes_inbox'
p231
I0
sg16
g5
sg17
g5
sg18
g5
sg19
I189583
sg20
g5
sg21
g5
sg22
g5
sg23
g5
sg24
g5
sg25
g5
sg26
g5
sg27
I189583
sS'mail_content_discussion_threads'
p232
I0
sg29
g5
sS'mail_content_all_documents'
p233
I0
ssS'BERGSIEKER RICHARD P'
p234
(dp235
g3
I383
sg4
g5
sg6
I59175
sS'mail_content_deleted_items'
p236
I0
sg8
I00
sg9
I-485813
sg10
S'rick.bergsieker@enron.com'
p237
sg12
I180250
sS'mail_content_inbox'
p238
I0
sg14
g5
sS'mail_content_notes_inbox'
p239
I4
sg16
I233
sg17
g5
sg18
I59
sg19
I427316
sg20
g5
sg21
I250000
sg22
I659249
sg23
I4
sg24
I0
sg25
I659249
sg26
I187922
sg27
I618850
sS'mail_content_discussion_threads'
p240
I14
sg29
g5
sS'mail_content_all_documents'
p241
I21
ssS'URQUHART JOHN A'
p242
(dp243
g3
g5
sg4
g5
sg6
I228656
sS'mail_content_deleted_items'
p244
I0
sg8
I00
sg9
I-36666
sg10
g5
sg12
g5
sS'mail_content_inbox'
p245
I0
sg14
g5
sS'mail_content_notes_inbox'
p246
I0
sg16
g5
sg17
g5
sg18
g5
sg19
g5
sg20
I36666
sg21
g5
sg22
g5
sg23
g5
sg24
g5
sg25
g5
sg26
g5
sg27
I228656
sS'mail_content_discussion_threads'
p247
I0
sg29
g5
sS'mail_content_all_documents'
p248
I0
ssS'BIBI PHILIPPE A'
p249
(dp250
g3
I1607
sg4
g5
sg6
I38559
sS'mail_content_deleted_items'
p251
I0
sg8
I00
sg9
g5
sg10
S'philippe.bibi@enron.com'
p252
sg12
I369721
sS'mail_content_inbox'
p253
I0
sg14
g5
sS'mail_content_notes_inbox'
p254
I7
sg16
I1336
sg17
g5
sg18
I40
sg19
I425688
sg20
g5
sg21
I1000000
sg22
I1843816
sg23
I23
sg24
I8
sg25
I378082
sg26
I213625
sg27
I2047593
sS'mail_content_discussion_threads'
p255
I9
sg29
I1465734
sS'mail_content_all_documents'
p256
I11
ssS'RIEKER PAULA H'
p257
(dp258
g3
I1328
sg4
I214678
sg6
I33271
sS'mail_content_deleted_items'
p259
I20
sg8
I01
sg9
I-100000
sg10
S'paula.rieker@enron.com'
p260
sg12
g5
sS'mail_content_inbox'
p261
I48
sg14
g5
sS'mail_content_notes_inbox'
p262
I0
sg16
I1258
sg17
g5
sg18
I82
sg19
I1950
sg20
g5
sg21
I700000
sg22
I1918887
sg23
I35
sg24
I48
sg25
I283649
sg26
I249201
sg27
I1099100
sS'mail_content_discussion_threads'
p263
I0
sg29
I1635238
sS'mail_content_all_documents'
p264
I0
ssS'WHALEY DAVID A'
p265
(dp266
g3
g5
sg4
g5
sg6
g5
sS'mail_content_deleted_items'
p267
I0
sg8
I00
sg9
g5
sg10
g5
sg12
g5
sS'mail_content_inbox'
p268
I0
sg14
g5
sS'mail_content_notes_inbox'
p269
I0
sg16
g5
sg17
g5
sg18
g5
sg19
g5
sg20
g5
sg21
g5
sg22
I98718
sg23
g5
sg24
g5
sg25
g5
sg26
g5
sg27
g5
sS'mail_content_discussion_threads'
p270
I0
sg29
I98718
sS'mail_content_all_documents'
p271
I0
ssS'BECK SALLY W'
p272
(dp273
g3
I7315
sg4
g5
sg6
I37172
sS'mail_content_deleted_items'
p274
I26
sg8
I00
sg9
g5
sg10
S'sally.beck@enron.com'
p275
sg12
g5
sS'mail_content_inbox'
p276
I29
sg14
g5
sS'mail_content_notes_inbox'
p277
I0
sg16
I2639
sg17
g5
sg18
I4343
sg19
I566
sg20
g5
sg21
I700000
sg22
I126027
sg23
I144
sg24
I386
sg25
I126027
sg26
I231330
sg27
I969068
sS'mail_content_discussion_threads'
p278
I671
sg29
g5
sS'mail_content_all_documents'
p279
I1034
ssS'HAUG DAVID L'
p280
(dp281
g3
I573
sg4
g5
sg6
I475
sS'mail_content_deleted_items'
p282
I0
sg8
I00
sg9
g5
sg10
S'david.haug@enron.com'
p283
sg12
g5
sS'mail_content_inbox'
p284
I2
sg14
g5
sS'mail_content_notes_inbox'
p285
I2
sg16
I471
sg17
g5
sg18
I19
sg19
g5
sg20
g5
sg21
g5
sg22
I2217299
sg23
I4
sg24
I7
sg25
I2217299
sg26
g5
sg27
I475
sS'mail_content_discussion_threads'
p286
I2
sg29
g5
sS'mail_content_all_documents'
p287
I4
ssS'ECHOLS JOHN B'
p288
(dp289
g3
g5
sg4
g5
sg6
I21530
sS'mail_content_deleted_items'
p290
I0
sg8
I00
sg9
g5
sg10
S'john.echols@enron.com'
p291
sg12
I2234774
sS'mail_content_inbox'
p292
I0
sg14
g5
sS'mail_content_notes_inbox'
p293
I0
sg16
g5
sg17
g5
sg18
g5
sg19
I53775
sg20
g5
sg21
I200000
sg22
I1008941
sg23
g5
sg24
g5
sg25
I407503
sg26
I182245
sg27
I2692324
sS'mail_content_discussion_threads'
p294
I0
sg29
I601438
sS'mail_content_all_documents'
p295
I0
ssS'MENDELSOHN JOHN'
p296
(dp297
g3
g5
sg4
g5
sg6
I148
sS'mail_content_deleted_items'
p298
I0
sg8
I00
sg9
I-103750
sg10
g5
sg12
g5
sS'mail_content_inbox'
p299
I0
sg14
g5
sS'mail_content_notes_inbox'
p300
I0
sg16
g5
sg17
g5
sg18
g5
sg19
g5
sg20
I103750
sg21
g5
sg22
g5
sg23
g5
sg24
g5
sg25
g5
sg26
g5
sg27
I148
sS'mail_content_discussion_threads'
p301
I0
sg29
g5
sS'mail_content_all_documents'
p302
I0
ssS'HICKERSON GARY J'
p303
(dp304
g3
I1320
sg4
g5
sg6
I98849
sS'mail_content_deleted_items'
p305
I7
sg8
I00
sg9
g5
sg10
S'gary.hickerson@enron.com'
p306
sg12
I69223
sS'mail_content_inbox'
p307
I0
sg14
g5
sS'mail_content_notes_inbox'
p308
I3
sg16
I900
sg17
g5
sg18
I27
sg19
I1936
sg20
g5
sg21
I1700000
sg22
I441096
sg23
I40
sg24
I1
sg25
I441096
sg26
I211788
sg27
I2081796
sS'mail_content_discussion_threads'
p309
I3
sg29
g5
sS'mail_content_all_documents'
p310
I6
ssS'CLINE KENNETH W'
p311
(dp312
g3
g5
sg4
g5
sg6
g5
sS'mail_content_deleted_items'
p313
I0
sg8
I00
sg9
g5
sg10
g5
sg12
g5
sS'mail_content_inbox'
p314
I0
sg14
I-472568
sS'mail_content_notes_inbox'
p315
I0
sg16
g5
sg17
g5
sg18
g5
sg19
g5
sg20
g5
sg21
g5
sg22
I189518
sg23
g5
sg24
g5
sg25
I662086
sg26
g5
sg27
g5
sS'mail_content_discussion_threads'
p316
I0
sg29
g5
sS'mail_content_all_documents'
p317
I0
ssS'LEWIS RICHARD'
p318
(dp319
g3
I952
sg4
g5
sg6
g5
sS'mail_content_deleted_items'
p320
I0
sg8
I00
sg9
g5
sg10
S'richard.lewis@enron.com'
p321
sg12
g5
sS'mail_content_inbox'
p322
I0
sg14
g5
sS'mail_content_notes_inbox'
p323
I1
sg16
I739
sg17
g5
sg18
I26
sg19
g5
sg20
g5
sg21
g5
sg22
I850477
sg23
I10
sg24
I0
sg25
g5
sg26
g5
sg27
g5
sS'mail_content_discussion_threads'
p324
I5
sg29
I850477
sS'mail_content_all_documents'
p325
I7
ssS'HAYES ROBERT E'
p326
(dp327
g3
I504
sg4
I7961
sg6
g5
sS'mail_content_deleted_items'
p328
I4
sg8
I00
sg9
g5
sg10
S'robert.hayes@enron.com'
p329
sg12
g5
sS'mail_content_inbox'
p330
I6
sg14
g5
sS'mail_content_notes_inbox'
p331
I0
sg16
I50
sg17
g5
sg18
I12
sg19
g5
sg20
g5
sg21
g5
sg22
I151418
sg23
I16
sg24
I0
sg25
I151418
sg26
g5
sg27
I7961
sS'mail_content_discussion_threads'
p332
I0
sg29
g5
sS'mail_content_all_documents'
p333
I0
ssS'MCCARTY DANNY J'
p334
(dp335
g3
I1433
sg4
g5
sg6
g5
sS'mail_content_deleted_items'
p336
I26
sg8
I00
sg9
g5
sg10
S'danny.mccarty@enron.com'
p337
sg12
g5
sS'mail_content_inbox'
p338
I5
sg14
g5
sS'mail_content_notes_inbox'
p339
I0
sg16
I508
sg17
g5
sg18
I215
sg19
g5
sg20
g5
sg21
g5
sg22
I758931
sg23
I25
sg24
I2
sg25
I94556
sg26
g5
sg27
g5
sS'mail_content_discussion_threads'
p340
I0
sg29
I664375
sS'mail_content_all_documents'
p341
I0
ssS'KOPPER MICHAEL J'
p342
(dp343
g3
g5
sg4
g5
sg6
I118134
sS'mail_content_deleted_items'
p344
I0
sg8
I01
sg9
g5
sg10
S'michael.kopper@enron.com'
p345
sg12
I602671
sS'mail_content_inbox'
p346
I0
sg14
g5
sS'mail_content_notes_inbox'
p347
I0
sg16
g5
sg17
g5
sg18
g5
sg19
I907502
sg20
g5
sg21
I800000
sg22
I985032
sg23
g5
sg24
g5
sg25
I985032
sg26
I224305
sg27
I2652612
sS'mail_content_discussion_threads'
p348
I0
sg29
g5
sS'mail_content_all_documents'
p349
I0
ssS'LEFF DANIEL P'
p350
(dp351
g3
I2822
sg4
g5
sg6
g5
sS'mail_content_deleted_items'
p352
I2
sg8
I00
sg9
g5
sg10
S'dan.leff@enron.com'
p353
sg12
I1387399
sS'mail_content_inbox'
p354
I17
sg14
g5
sS'mail_content_notes_inbox'
p355
I5
sg16
I2672
sg17
g5
sg18
I63
sg19
I3083
sg20
g5
sg21
I1000000
sg22
I360528
sg23
I67
sg24
I14
sg25
I360528
sg26
I273746
sg27
I2664228
sS'mail_content_discussion_threads'
p356
I4
sg29
g5
sS'mail_content_all_documents'
p357
I9
ssS'LAVORATO JOHN J'
p358
(dp359
g3
I7259
sg4
g5
sg6
I49537
sS'mail_content_deleted_items'
p360
I67
sg8
I00
sg9
g5
sg10
S'john.lavorato@enron.com'
p361
sg12
I2035380
sS'mail_content_inbox'
p362
I43
sg14
g5
sS'mail_content_notes_inbox'
p363
I12
sg16
I3962
sg17
g5
sg18
I2585
sg19
I1552
sg20
g5
sg21
I8000000
sg22
I5167144
sg23
I528
sg24
I411
sg25
I1008149
sg26
I339288
sg27
I10425757
sS'mail_content_discussion_threads'
p364
I291
sg29
I4158995
sS'mail_content_all_documents'
p365
I629
ssS'BERBERIAN DAVID'
p366
(dp367
g3
g5
sg4
g5
sg6
I11892
sS'mail_content_deleted_items'
p368
I0
sg8
I00
sg9
g5
sg10
S'david.berberian@enron.com'
p369
sg12
g5
sS'mail_content_inbox'
p370
I0
sg14
g5
sS'mail_content_notes_inbox'
p371
I0
sg16
g5
sg17
g5
sg18
g5
sg19
g5
sg20
g5
sg21
g5
sg22
I2493616
sg23
g5
sg24
g5
sg25
I869220
sg26
I216582
sg27
I228474
sS'mail_content_discussion_threads'
p372
I0
sg29
I1624396
sS'mail_content_all_documents'
p373
I0
ssS'DETMERING TIMOTHY J'
p374
(dp375
g3
g5
sg4
I875307
sg6
I52255
sS'mail_content_deleted_items'
p376
I0
sg8
I00
sg9
I-775241
sg10
S'timothy.detmering@enron.com'
p377
sg12
I415657
sS'mail_content_inbox'
p378
I0
sg14
I-315068
sS'mail_content_notes_inbox'
p379
I0
sg16
g5
sg17
g5
sg18
g5
sg19
I1105
sg20
g5
sg21
I425000
sg22
I2027865
sg23
g5
sg24
g5
sg25
I315068
sg26
I210500
sg27
I1204583
sS'mail_content_discussion_threads'
p380
I0
sg29
I2027865
sS'mail_content_all_documents'
p381
I0
ssS'WAKEHAM JOHN'
p382
(dp383
g3
g5
sg4
g5
sg6
I103773
sS'mail_content_deleted_items'
p384
I0
sg8
I00
sg9
g5
sg10
g5
sg12
g5
sS'mail_content_inbox'
p385
I0
sg14
g5
sS'mail_content_notes_inbox'
p386
I0
sg16
g5
sg17
g5
sg18
g5
sg19
g5
sg20
I109298
sg21
g5
sg22
g5
sg23
g5
sg24
g5
sg25
g5
sg26
g5
sg27
I213071
sS'mail_content_discussion_threads'
p387
I0
sg29
g5
sS'mail_content_all_documents'
p388
I0
ssS'POWERS WILLIAM'
p389
(dp390
g3
I653
sg4
g5
sg6
g5
sS'mail_content_deleted_items'
p391
I0
sg8
I00
sg9
I-17500
sg10
S'ken.powers@enron.com'
p392
sg12
g5
sS'mail_content_inbox'
p393
I4
sg14
g5
sS'mail_content_notes_inbox'
p394
I0
sg16
I12
sg17
g5
sg18
I26
sg19
g5
sg20
I17500
sg21
g5
sg22
g5
sg23
I0
sg24
I0
sg25
g5
sg26
g5
sg27
g5
sS'mail_content_discussion_threads'
p395
I0
sg29
g5
sS'mail_content_all_documents'
p396
I0
ssS'GOLD JOSEPH'
p397
(dp398
g3
g5
sg4
g5
sg6
g5
sS'mail_content_deleted_items'
p399
I0
sg8
I00
sg9
g5
sg10
S'joe.gold@enron.com'
p400
sg12
I304805
sS'mail_content_inbox'
p401
I0
sg14
g5
sS'mail_content_notes_inbox'
p402
I0
sg16
g5
sg17
g5
sg18
g5
sg19
I819288
sg20
g5
sg21
I750000
sg22
I877611
sg23
g5
sg24
g5
sg25
I441096
sg26
I272880
sg27
I2146973
sS'mail_content_discussion_threads'
p403
I0
sg29
I436515
sS'mail_content_all_documents'
p404
I0
ssS'BANNANTINE JAMES M'
p405
(dp406
g3
I566
sg4
g5
sg6
I56301
sS'mail_content_deleted_items'
p407
I0
sg8
I00
sg9
I-5104
sg10
S'james.bannantine@enron.com'
p408
sg12
g5
sS'mail_content_inbox'
p409
I0
sg14
I-560222
sS'mail_content_notes_inbox'
p410
I3
sg16
I465
sg17
g5
sg18
I29
sg19
I864523
sg20
g5
sg21
g5
sg22
I5243487
sg23
I39
sg24
I0
sg25
I1757552
sg26
I477
sg27
I916197
sS'mail_content_discussion_threads'
p411
I6
sg29
I4046157
sS'mail_content_all_documents'
p412
I7
ssS'DUNCAN JOHN H'
p413
(dp414
g3
g5
sg4
g5
sg6
g5
sS'mail_content_deleted_items'
p415
I0
sg8
I00
sg9
I-25000
sg10
g5
sg12
g5
sS'mail_content_inbox'
p416
I0
sg14
g5
sS'mail_content_notes_inbox'
p417
I0
sg16
g5
sg17
g5
sg18
g5
sg19
g5
sg20
I102492
sg21
g5
sg22
I371750
sg23
g5
sg24
g5
sg25
g5
sg26
g5
sg27
I77492
sS'mail_content_discussion_threads'
p418
I0
sg29
I371750
sS'mail_content_all_documents'
p419
I0
ssS'SHAPIRO RICHARD S'
p420
(dp421
g3
I15149
sg4
g5
sg6
I137767
sS'mail_content_deleted_items'
p422
I261
sg8
I00
sg9
g5
sg10
S'richard.shapiro@enron.com'
p423
sg12
g5
sS'mail_content_inbox'
p424
I39
sg14
g5
sS'mail_content_notes_inbox'
p425
I94
sg16
I4527
sg17
g5
sg18
I1215
sg19
I705
sg20
g5
sg21
I650000
sg22
I987001
sg23
I74
sg24
I65
sg25
I379164
sg26
I269076
sg27
I1057548
sS'mail_content_discussion_threads'
p426
I104
sg29
I607837
sS'mail_content_all_documents'
p427
I214
ssS'SHERRIFF JOHN R'
p428
(dp429
g3
I3187
sg4
g5
sg6
g5
sS'mail_content_deleted_items'
p430
I9
sg8
I00
sg9
g5
sg10
S'john.sherriff@enron.com'
p431
sg12
I554422
sS'mail_content_inbox'
p432
I7
sg14
g5
sS'mail_content_notes_inbox'
p433
I7
sg16
I2103
sg17
g5
sg18
I92
sg19
I1852186
sg20
g5
sg21
I1500000
sg22
I3128982
sg23
I28
sg24
I23
sg25
I1293424
sg26
I428780
sg27
I4335388
sS'mail_content_discussion_threads'
p434
I14
sg29
I1835558
sS'mail_content_all_documents'
p435
I23
ssS'SHELBY REX'
p436
(dp437
g3
I225
sg4
g5
sg6
I22884
sS'mail_content_deleted_items'
p438
I8
sg8
I01
sg9
I-4167
sg10
S'rex.shelby@enron.com'
p439
sg12
g5
sS'mail_content_inbox'
p440
I2
sg14
g5
sS'mail_content_notes_inbox'
p441
I8
sg16
I91
sg17
g5
sg18
I39
sg19
I1573324
sg20
g5
sg21
I200000
sg22
I2493616
sg23
I13
sg24
I14
sg25
I869220
sg26
I211844
sg27
I2003885
sS'mail_content_discussion_threads'
p442
I2
sg29
I1624396
sS'mail_content_all_documents'
p443
I9
ssS'LEMAISTRE CHARLES'
p444
(dp445
g3
g5
sg4
g5
sg6
g5
sS'mail_content_deleted_items'
p446
I0
sg8
I00
sg9
I-25000
sg10
g5
sg12
g5
sS'mail_content_inbox'
p447
I0
sg14
g5
sS'mail_content_notes_inbox'
p448
I0
sg16
g5
sg17
g5
sg18
g5
sg19
g5
sg20
I112492
sg21
g5
sg22
I412878
sg23
g5
sg24
g5
sg25
g5
sg26
g5
sg27
I87492
sS'mail_content_discussion_threads'
p449
I0
sg29
I412878
sS'mail_content_all_documents'
p450
I0
ssS'DEFFNER JOSEPH M'
p451
(dp452
g3
I714
sg4
g5
sg6
I41626
sS'mail_content_deleted_items'
p453
I1
sg8
I00
sg9
g5
sg10
S'joseph.deffner@enron.com'
p454
sg12
I335349
sS'mail_content_inbox'
p455
I5
sg14
g5
sS'mail_content_notes_inbox'
p456
I1
sg16
I552
sg17
g5
sg18
I74
sg19
I25553
sg20
g5
sg21
I600000
sg22
I159211
sg23
I115
sg24
I4
sg25
I141833
sg26
I206121
sg27
I1208649
sS'mail_content_discussion_threads'
p457
I0
sg29
I17378
sS'mail_content_all_documents'
p458
I2
ssS'KISHKILL JOSEPH G'
p459
(dp460
g3
g5
sg4
g5
sg6
I116335
sS'mail_content_deleted_items'
p461
I0
sg8
I00
sg9
I-51042
sg10
S'joe.kishkill@enron.com'
p462
sg12
g5
sS'mail_content_inbox'
p463
I0
sg14
g5
sS'mail_content_notes_inbox'
p464
I0
sg16
g5
sg17
g5
sg18
g5
sg19
I465357
sg20
g5
sg21
g5
sg22
I1034346
sg23
g5
sg24
g5
sg25
I1034346
sg26
I174246
sg27
I704896
sS'mail_content_discussion_threads'
p465
I0
sg29
g5
sS'mail_content_all_documents'
p466
I0
ssS'WHALLEY LAWRENCE G'
p467
(dp468
g3
I6019
sg4
g5
sg6
I57838
sS'mail_content_deleted_items'
p469
I1
sg8
I00
sg9
g5
sg10
S'greg.whalley@enron.com'
p470
sg12
I808346
sS'mail_content_inbox'
p471
I1
sg14
g5
sS'mail_content_notes_inbox'
p472
I0
sg16
I3920
sg17
g5
sg18
I556
sg19
I301026
sg20
g5
sg21
I3000000
sg22
I6079137
sg23
I186
sg24
I24
sg25
I2796177
sg26
I510364
sg27
I4677574
sS'mail_content_discussion_threads'
p473
I80
sg29
I3282960
sS'mail_content_all_documents'
p474
I137
ssS'MCCONNELL MICHAEL S'
p475
(dp476
g3
I3329
sg4
g5
sg6
I81364
sS'mail_content_deleted_items'
p477
I8
sg8
I00
sg9
g5
sg10
S'mike.mcconnell@enron.com'
p478
sg12
I554422
sS'mail_content_inbox'
p479
I11
sg14
g5
sS'mail_content_notes_inbox'
p480
I3
sg16
I2189
sg17
g5
sg18
I2742
sg19
I540
sg20
g5
sg21
I1100000
sg22
I3101279
sg23
I92
sg24
I194
sg25
I1478269
sg26
I365038
sg27
I2101364
sS'mail_content_discussion_threads'
p481
I387
sg29
I1623010
sS'mail_content_all_documents'
p482
I777
ssS'PIRO JIM'
p483
(dp484
g3
I58
sg4
g5
sg6
g5
sS'mail_content_deleted_items'
p485
I0
sg8
I00
sg9
g5
sg10
S'jim.piro@enron.com'
p486
sg12
g5
sS'mail_content_inbox'
p487
I2
sg14
g5
sS'mail_content_notes_inbox'
p488
I0
sg16
I3
sg17
g5
sg18
I16
sg19
g5
sg20
g5
sg21
g5
sg22
I47304
sg23
I0
sg24
I1
sg25
I47304
sg26
g5
sg27
g5
sS'mail_content_discussion_threads'
p489
I0
sg29
g5
sS'mail_content_all_documents'
p490
I0
ssS'DELAINEY DAVID W'
p491
(dp492
g3
I3093
sg4
g5
sg6
I86174
sS'mail_content_deleted_items'
p493
I3
sg8
I01
sg9
g5
sg10
S'david.delainey@enron.com'
p494
sg12
I1294981
sS'mail_content_inbox'
p495
I12
sg14
g5
sS'mail_content_notes_inbox'
p496
I16
sg16
I2097
sg17
g5
sg18
I3069
sg19
I1661
sg20
g5
sg21
I3000000
sg22
I3614261
sg23
I66
sg24
I609
sg25
I1323148
sg26
I365163
sg27
I4747979
sS'mail_content_discussion_threads'
p497
I678
sg29
I2291113
sS'mail_content_all_documents'
p498
I800
ssS'SULLIVAN-SHAKLOVITZ COLLEEN'
p499
(dp500
g3
g5
sg4
I181993
sg6
g5
sS'mail_content_deleted_items'
p501
I0
sg8
I00
sg9
g5
sg10
g5
sg12
I554422
sS'mail_content_inbox'
p502
I0
sg14
g5
sS'mail_content_notes_inbox'
p503
I0
sg16
g5
sg17
g5
sg18
g5
sg19
I162
sg20
g5
sg21
I100000
sg22
I1362375
sg23
g5
sg24
g5
sg25
g5
sg26
I162779
sg27
I999356
sS'mail_content_discussion_threads'
p504
I0
sg29
I1362375
sS'mail_content_all_documents'
p505
I0
ssS'WROBEL BRUCE'
p506
(dp507
g3
g5
sg4
g5
sg6
g5
sS'mail_content_deleted_items'
p508
I0
sg8
I00
sg9
g5
sg10
g5
sg12
g5
sS'mail_content_inbox'
p509
I0
sg14
g5
sS'mail_content_notes_inbox'
p510
I0
sg16
g5
sg17
g5
sg18
g5
sg19
g5
sg20
g5
sg21
g5
sg22
I139130
sg23
g5
sg24
g5
sg25
g5
sg26
g5
sg27
g5
sS'mail_content_discussion_threads'
p511
I0
sg29
I139130
sS'mail_content_all_documents'
p512
I0
ssS'LINDHOLM TOD A'
p513
(dp514
g3
g5
sg4
I204075
sg6
I57727
sS'mail_content_deleted_items'
p515
I0
sg8
I00
sg9
g5
sg10
S'tod.lindholm@enron.com'
p516
sg12
I175000
sS'mail_content_inbox'
p517
I0
sg14
g5
sS'mail_content_notes_inbox'
p518
I0
sg16
g5
sg17
g5
sg18
g5
sg19
I2630
sg20
g5
sg21
I200000
sg22
I3064208
sg23
g5
sg24
g5
sg25
I514847
sg26
I236457
sg27
I875889
sS'mail_content_discussion_threads'
p519
I0
sg29
I2549361
sS'mail_content_all_documents'
p520
I0
ssS'MEYER JEROME J'
p521
(dp522
g3
g5
sg4
g5
sg6
I2151
sS'mail_content_deleted_items'
p523
I0
sg8
I00
sg9
I-38346
sg10
g5
sg12
g5
sS'mail_content_inbox'
p524
I0
sg14
g5
sS'mail_content_notes_inbox'
p525
I0
sg16
g5
sg17
g5
sg18
g5
sg19
g5
sg20
I38346
sg21
g5
sg22
g5
sg23
g5
sg24
g5
sg25
g5
sg26
g5
sg27
I2151
sS'mail_content_discussion_threads'
p526
I0
sg29
g5
sS'mail_content_all_documents'
p527
I0
ssS'LAY KENNETH L'
p528
(dp529
g3
I4273
sg4
I202911
sg6
I99832
sS'mail_content_deleted_items'
p530
I4
sg8
I01
sg9
I-300000
sg10
S'kenneth.lay@enron.com'
p531
sg12
I3600000
sS'mail_content_inbox'
p532
I5
sg14
g5
sS'mail_content_notes_inbox'
p533
I0
sg16
I2411
sg17
I81525000
sg18
I36
sg19
I10359729
sg20
g5
sg21
I7000000
sg22
I49110078
sg23
I123
sg24
I16
sg25
I14761694
sg26
I1072321
sg27
I103559793
sS'mail_content_discussion_threads'
p534
I0
sg29
I34348384
sS'mail_content_all_documents'
p535
I0
ssS'BUTTS ROBERT H'
p536
(dp537
g3
g5
sg4
g5
sg6
I9410
sS'mail_content_deleted_items'
p538
I0
sg8
I00
sg9
I-75000
sg10
S'bob.butts@enron.com'
p539
sg12
I175000
sS'mail_content_inbox'
p540
I0
sg14
g5
sS'mail_content_notes_inbox'
p541
I0
sg16
g5
sg17
g5
sg18
g5
sg19
I150656
sg20
g5
sg21
I750000
sg22
I417619
sg23
g5
sg24
g5
sg25
I417619
sg26
I261516
sg27
I1271582
sS'mail_content_discussion_threads'
p542
I0
sg29
g5
sS'mail_content_all_documents'
p543
I0
ssS'OLSON CINDY K'
p544
(dp545
g3
I1184
sg4
I77716
sg6
I63791
sS'mail_content_deleted_items'
p546
I7
sg8
I00
sg9
g5
sg10
S'cindy.olson@enron.com'
p547
sg12
I100000
sS'mail_content_inbox'
p548
I9
sg14
g5
sS'mail_content_notes_inbox'
p549
I3
sg16
I856
sg17
g5
sg18
I52
sg19
I972
sg20
g5
sg21
I750000
sg22
I2606763
sg23
I20
sg24
I15
sg25
I969729
sg26
I329078
sg27
I1321557
sS'mail_content_discussion_threads'
p550
I5
sg29
I1637034
sS'mail_content_all_documents'
p551
I6
ssS'MCDONALD REBECCA'
p552
(dp553
g3
I894
sg4
g5
sg6
g5
sS'mail_content_deleted_items'
p554
I0
sg8
I00
sg9
g5
sg10
S'rebecca.mcdonald@enron.com'
p555
sg12
g5
sS'mail_content_inbox'
p556
I0
sg14
g5
sS'mail_content_notes_inbox'
p557
I2
sg16
I720
sg17
g5
sg18
I13
sg19
g5
sg20
g5
sg21
g5
sg22
I1691366
sg23
I54
sg24
I1
sg25
I934065
sg26
g5
sg27
g5
sS'mail_content_discussion_threads'
p558
I3
sg29
I757301
sS'mail_content_all_documents'
p559
I3
ssS'CUMBERLAND MICHAEL S'
p560
(dp561
g3
g5
sg4
g5
sg6
I22344
sS'mail_content_deleted_items'
p562
I0
sg8
I00
sg9
g5
sg10
g5
sg12
I275000
sS'mail_content_inbox'
p563
I0
sg14
g5
sS'mail_content_notes_inbox'
p564
I0
sg16
g5
sg17
g5
sg18
g5
sg19
I713
sg20
g5
sg21
I325000
sg22
I207940
sg23
g5
sg24
g5
sg25
I207940
sg26
I184899
sg27
I807956
sS'mail_content_discussion_threads'
p565
I0
sg29
g5
sS'mail_content_all_documents'
p566
I0
ssS'GAHN ROBERT S'
p567
(dp568
g3
g5
sg4
I73122
sg6
I50080
sS'mail_content_deleted_items'
p569
I0
sg8
I00
sg9
I-1042
sg10
g5
sg12
g5
sS'mail_content_inbox'
p570
I0
sg14
g5
sS'mail_content_notes_inbox'
p571
I0
sg16
g5
sg17
g5
sg18
g5
sg19
I76547
sg20
g5
sg21
I509870
sg22
I318607
sg23
g5
sg24
g5
sg25
I235370
sg26
I192008
sg27
I900585
sS'mail_content_discussion_threads'
p572
I0
sg29
I83237
sS'mail_content_all_documents'
p573
I0
ssS'MCCLELLAN GEORGE'
p574
(dp575
g3
I1744
sg4
g5
sg6
I228763
sS'mail_content_deleted_items'
p576
I10
sg8
I00
sg9
I-125000
sg10
S'george.mcclellan@enron.com'
p577
sg12
g5
sS'mail_content_inbox'
p578
I3
sg14
g5
sS'mail_content_notes_inbox'
p579
I2
sg16
I1469
sg17
g5
sg18
I49
sg19
I51587
sg20
g5
sg21
I900000
sg22
I947861
sg23
I52
sg24
I0
sg25
I441096
sg26
I263413
sg27
I1318763
sS'mail_content_discussion_threads'
p580
I9
sg29
I506765
sS'mail_content_all_documents'
p581
I11
ssS'HERMANN ROBERT J'
p582
(dp583
g3
g5
sg4
g5
sg6
I48357
sS'mail_content_deleted_items'
p584
I0
sg8
I00
sg9
I-280000
sg10
S'robert.hermann@enron.com'
p585
sg12
I150000
sS'mail_content_inbox'
p586
I0
sg14
g5
sS'mail_content_notes_inbox'
p587
I0
sg16
g5
sg17
g5
sg18
g5
sg19
I416441
sg20
g5
sg21
I700000
sg22
I668132
sg23
g5
sg24
g5
sg25
I480632
sg26
I262663
sg27
I1297461
sS'mail_content_discussion_threads'
p588
I0
sg29
I187500
sS'mail_content_all_documents'
p589
I0
ssS'SCRIMSHAW MATTHEW'
p590
(dp591
g3
g5
sg4
g5
sg6
g5
sS'mail_content_deleted_items'
p592
I0
sg8
I00
sg9
g5
sg10
S'matthew.scrimshaw@enron.com'
p593
sg12
g5
sS'mail_content_inbox'
p594
I0
sg14
g5
sS'mail_content_notes_inbox'
p595
I0
sg16
g5
sg17
g5
sg18
g5
sg19
g5
sg20
g5
sg21
g5
sg22
I759557
sg23
g5
sg24
g5
sg25
g5
sg26
g5
sg27
g5
sS'mail_content_discussion_threads'
p596
I0
sg29
I759557
sS'mail_content_all_documents'
p597
I0
ssS'GATHMANN WILLIAM D'
p598
(dp599
g3
g5
sg4
g5
sg6
g5
sS'mail_content_deleted_items'
p600
I0
sg8
I00
sg9
g5
sg10
g5
sg12
g5
sS'mail_content_inbox'
p601
I0
sg14
I-72419
sS'mail_content_notes_inbox'
p602
I0
sg16
g5
sg17
g5
sg18
g5
sg19
g5
sg20
g5
sg21
g5
sg22
I1945360
sg23
g5
sg24
g5
sg25
I264013
sg26
g5
sg27
g5
sS'mail_content_discussion_threads'
p603
I0
sg29
I1753766
sS'mail_content_all_documents'
p604
I0
ssS'HAEDICKE MARK E'
p605
(dp606
g3
I4009
sg4
I2157527
sg6
I76169
sS'mail_content_deleted_items'
p607
I0
sg8
I00
sg9
I-934484
sg10
S'mark.haedicke@enron.com'
p608
sg12
I983346
sS'mail_content_inbox'
p609
I2
sg14
I-329825
sS'mail_content_notes_inbox'
p610
I33
sg16
I1847
sg17
g5
sg18
I1941
sg19
I52382
sg20
g5
sg21
I1150000
sg22
I803094
sg23
I180
sg24
I61
sg25
I524169
sg26
I374125
sg27
I3859065
sS'mail_content_discussion_threads'
p611
I3
sg29
I608750
sS'mail_content_all_documents'
p612
I962
ssS'BOWEN JR RAYMOND M'
p613
(dp614
g3
I1858
sg4
g5
sg6
I65907
sS'mail_content_deleted_items'
p615
I2
sg8
I01
sg9
I-833
sg10
S'raymond.bowen@enron.com'
p616
sg12
I974293
sS'mail_content_inbox'
p617
I10
sg14
g5
sS'mail_content_notes_inbox'
p618
I0
sg16
I1593
sg17
g5
sg18
I27
sg19
I1621
sg20
g5
sg21
I1350000
sg22
I252055
sg23
I140
sg24
I15
sg25
I252055
sg26
I278601
sg27
I2669589
sS'mail_content_discussion_threads'
p619
I1
sg29
g5
sS'mail_content_all_documents'
p620
I1
ssS'GILLIS JOHN'
p621
(dp622
g3
g5
sg4
g5
sg6
g5
sS'mail_content_deleted_items'
p623
I0
sg8
I00
sg9
g5
sg10
g5
sg12
g5
sS'mail_content_inbox'
p624
I0
sg14
g5
sS'mail_content_notes_inbox'
p625
I0
sg16
g5
sg17
g5
sg18
g5
sg19
g5
sg20
g5
sg21
g5
sg22
I85641
sg23
g5
sg24
g5
sg25
I75838
sg26
g5
sg27
g5
sS'mail_content_discussion_threads'
p626
I0
sg29
I9803
sS'mail_content_all_documents'
p627
I0
ssS'FITZGERALD JAY L'
p628
(dp629
g3
I936
sg4
g5
sg6
I23870
sS'mail_content_deleted_items'
p630
I0
sg8
I00
sg9
g5
sg10
S'jay.fitzgerald@enron.com'
p631
sg12
I556416
sS'mail_content_inbox'
p632
I1
sg14
g5
sS'mail_content_notes_inbox'
p633
I1
sg16
I723
sg17
g5
sg18
I16
sg19
I285414
sg20
g5
sg21
I350000
sg22
I1621236
sg23
I1
sg24
I8
sg25
I956775
sg26
I199157
sg27
I1414857
sS'mail_content_discussion_threads'
p634
I3
sg29
I664461
sS'mail_content_all_documents'
p635
I3
ssS'MORAN MICHAEL P'
p636
(dp637
g3
I672
sg4
g5
sg6
g5
sS'mail_content_deleted_items'
p638
I0
sg8
I00
sg9
g5
sg10
S'michael.moran@enron.com'
p639
sg12
g5
sS'mail_content_inbox'
p640
I0
sg14
g5
sS'mail_content_notes_inbox'
p641
I4
sg16
I127
sg17
g5
sg18
I19
sg19
g5
sg20
g5
sg21
g5
sg22
I221141
sg23
I0
sg24
I0
sg25
I161602
sg26
g5
sg27
g5
sS'mail_content_discussion_threads'
p642
I5
sg29
I59539
sS'mail_content_all_documents'
p643
I6
ssS'REDMOND BRIAN L'
p644
(dp645
g3
I1671
sg4
g5
sg6
I14689
sS'mail_content_deleted_items'
p646
I17
sg8
I00
sg9
g5
sg10
S'brian.redmond@enron.com'
p647
sg12
g5
sS'mail_content_inbox'
p648
I31
sg14
g5
sS'mail_content_notes_inbox'
p649
I8
sg16
I1063
sg17
g5
sg18
I221
sg19
g5
sg20
g5
sg21
g5
sg22
I7890324
sg23
I204
sg24
I49
sg25
I381285
sg26
I96840
sg27
I111529
sS'mail_content_discussion_threads'
p650
I18
sg29
I7509039
sS'mail_content_all_documents'
p651
I32
ssS'BAZELIDES PHILIP J'
p652
(dp653
g3
g5
sg4
I684694
sg6
g5
sS'mail_content_deleted_items'
p654
I0
sg8
I00
sg9
g5
sg10
g5
sg12
I93750
sS'mail_content_inbox'
p655
I0
sg14
g5
sS'mail_content_notes_inbox'
p656
I0
sg16
g5
sg17
g5
sg18
g5
sg19
I874
sg20
g5
sg21
g5
sg22
I1599641
sg23
g5
sg24
g5
sg25
g5
sg26
I80818
sg27
I860136
sS'mail_content_discussion_threads'
p657
I0
sg29
I1599641
sS'mail_content_all_documents'
p658
I0
ssS'BELDEN TIMOTHY N'
p659
(dp660
g3
I7991
sg4
I2144013
sg6
I17355
sS'mail_content_deleted_items'
p661
I59
sg8
I01
sg9
I-2334434
sg10
S'tim.belden@enron.com'
p662
sg12
g5
sS'mail_content_inbox'
p663
I118
sg14
g5
sS'mail_content_notes_inbox'
p664
I29
sg16
I5521
sg17
g5
sg18
I484
sg19
I210698
sg20
g5
sg21
I5249999
sg22
I1110705
sg23
I228
sg24
I108
sg25
I157569
sg26
I213999
sg27
I5501630
sS'mail_content_discussion_threads'
p665
I42
sg29
I953136
sS'mail_content_all_documents'
p666
I67
ssS'DURAN WILLIAM D'
p667
(dp668
g3
I904
sg4
g5
sg6
I25785
sS'mail_content_deleted_items'
p669
I0
sg8
I00
sg9
g5
sg10
S'w.duran@enron.com'
p670
sg12
I1105218
sS'mail_content_inbox'
p671
I0
sg14
g5
sS'mail_content_notes_inbox'
p672
I0
sg16
I599
sg17
g5
sg18
I12
sg19
I1568
sg20
g5
sg21
I750000
sg22
I1640910
sg23
I106
sg24
I3
sg25
I189041
sg26
I210692
sg27
I2093263
sS'mail_content_discussion_threads'
p673
I0
sg29
I1451869
sS'mail_content_all_documents'
p674
I0
ssS'THORN TERENCE H'
p675
(dp676
g3
I266
sg4
I16586
sg6
I46145
sS'mail_content_deleted_items'
p677
I0
sg8
I00
sg9
g5
sg10
S'terence.thorn@enron.com'
p678
sg12
I200000
sS'mail_content_inbox'
p679
I0
sg14
g5
sS'mail_content_notes_inbox'
p680
I0
sg16
I73
sg17
g5
sg18
I41
sg19
I426629
sg20
g5
sg21
g5
sg22
I4817796
sg23
I0
sg24
I0
sg25
I365320
sg26
I222093
sg27
I911453
sS'mail_content_discussion_threads'
p681
I8
sg29
I4452476
sS'mail_content_all_documents'
p682
I8
ssS'FASTOW ANDREW S'
p683
(dp684
g3
g5
sg4
g5
sg6
I55921
sS'mail_content_deleted_items'
p685
I0
sg8
I01
sg9
I-1386055
sg10
S'andrew.fastow@enron.com'
p686
sg12
I1736055
sS'mail_content_inbox'
p687
I0
sg14
g5
sS'mail_content_notes_inbox'
p688
I0
sg16
g5
sg17
g5
sg18
g5
sg19
I277464
sg20
g5
sg21
I1300000
sg22
I1794412
sg23
g5
sg24
g5
sg25
I1794412
sg26
I440698
sg27
I2424083
sS'mail_content_discussion_threads'
p689
I0
sg29
g5
sS'mail_content_all_documents'
p690
I0
ssS'FOY JOE'
p691
(dp692
g3
I57
sg4
I181755
sg6
g5
sS'mail_content_deleted_items'
p693
I0
sg8
I00
sg9
g5
sg10
S'tracy.foy@enron.com'
p694
sg12
g5
sS'mail_content_inbox'
p695
I0
sg14
g5
sS'mail_content_notes_inbox'
p696
I1
sg16
I2
sg17
g5
sg18
I13
sg19
g5
sg20
g5
sg21
g5
sg22
I343434
sg23
I0
sg24
I0
sg25
g5
sg26
g5
sg27
I181755
sS'mail_content_discussion_threads'
p697
I0
sg29
I343434
sS'mail_content_all_documents'
p698
I4
ssS'CALGER CHRISTOPHER F'
p699
(dp700
g3
I2598
sg4
g5
sg6
I35818
sS'mail_content_deleted_items'
p701
I0
sg8
I01
sg9
I-262500
sg10
S'christopher.calger@enron.com'
p702
sg12
I375304
sS'mail_content_inbox'
p703
I0
sg14
g5
sS'mail_content_notes_inbox'
p704
I25
sg16
I2188
sg17
g5
sg18
I144
sg19
I486
sg20
g5
sg21
I1250000
sg22
I126027
sg23
I199
sg24
I25
sg25
I126027
sg26
I240189
sg27
I1639297
sS'mail_content_discussion_threads'
p705
I4
sg29
g5
sS'mail_content_all_documents'
p706
I29
ssS'RICE KENNETH D'
p707
(dp708
g3
I905
sg4
g5
sg6
I46950
sS'mail_content_deleted_items'
p709
I0
sg8
I01
sg9
I-3504386
sg10
S'ken.rice@enron.com'
p710
sg12
I1617011
sS'mail_content_inbox'
p711
I1
sg14
g5
sS'mail_content_notes_inbox'
p712
I2
sg16
I864
sg17
g5
sg18
I18
sg19
I174839
sg20
g5
sg21
I1750000
sg22
I22542539
sg23
I42
sg24
I4
sg25
I2748364
sg26
I420636
sg27
I505050
sS'mail_content_discussion_threads'
p713
I3
sg29
I19794175
sS'mail_content_all_documents'
p714
I5
ssS'KAMINSKI WINCENTY J'
p715
(dp716
g3
I4607
sg4
g5
sg6
I83585
sS'mail_content_deleted_items'
p717
I0
sg8
I00
sg9
g5
sg10
S'vince.kaminski@enron.com'
p718
sg12
I323466
sS'mail_content_inbox'
p719
I1
sg14
g5
sS'mail_content_notes_inbox'
p720
I15
sg16
I583
sg17
g5
sg18
I14368
sg19
I4669
sg20
g5
sg21
I400000
sg22
I976037
sg23
I41
sg24
I171
sg25
I126027
sg26
I275101
sg27
I1086821
sS'mail_content_discussion_threads'
p721
I2504
sg29
I850010
sS'mail_content_all_documents'
p722
I3676
ssS'LOCKHART EUGENE E'
p723
(dp724
g3
g5
sg4
g5
sg6
g5
sS'mail_content_deleted_items'
p725
I0
sg8
I00
sg9
g5
sg10
g5
sg12
g5
sS'mail_content_inbox'
p726
I0
sg14
g5
sS'mail_content_notes_inbox'
p727
I0
sg16
g5
sg17
g5
sg18
g5
sg19
g5
sg20
g5
sg21
g5
sg22
g5
sg23
g5
sg24
g5
sg25
g5
sg26
g5
sg27
g5
sS'mail_content_discussion_threads'
p728
I0
sg29
g5
sS'mail_content_all_documents'
p729
I0
ssS'COX DAVID'
p730
(dp731
g3
I102
sg4
g5
sg6
I27861
sS'mail_content_deleted_items'
p732
I2
sg8
I00
sg9
I-41250
sg10
S'chip.cox@enron.com'
p733
sg12
g5
sS'mail_content_inbox'
p734
I7
sg14
g5
sS'mail_content_notes_inbox'
p735
I3
sg16
I71
sg17
g5
sg18
I33
sg19
I494
sg20
g5
sg21
I800000
sg22
I495633
sg23
I0
sg24
I4
sg25
I378082
sg26
I314288
sg27
I1101393
sS'mail_content_discussion_threads'
p736
I4
sg29
I117551
sS'mail_content_all_documents'
p737
I4
ssS'OVERDYKE JR JERE C'
p738
(dp739
g3
g5
sg4
g5
sg6
I18834
sS'mail_content_deleted_items'
p740
I0
sg8
I00
sg9
g5
sg10
S'jere.overdyke@enron.com'
p741
sg12
I135836
sS'mail_content_inbox'
p742
I0
sg14
g5
sS'mail_content_notes_inbox'
p743
I0
sg16
g5
sg17
g5
sg18
g5
sg19
I176
sg20
g5
sg21
g5
sg22
I7307594
sg23
g5
sg24
g5
sg25
I2041016
sg26
I94941
sg27
I249787
sS'mail_content_discussion_threads'
p744
I0
sg29
I5266578
sS'mail_content_all_documents'
p745
I0
ssS'PEREIRA PAULO V. FERRAZ'
p746
(dp747
g3
g5
sg4
g5
sg6
I27942
sS'mail_content_deleted_items'
p748
I0
sg8
I00
sg9
I-101250
sg10
g5
sg12
g5
sS'mail_content_inbox'
p749
I0
sg14
g5
sS'mail_content_notes_inbox'
p750
I0
sg16
g5
sg17
g5
sg18
g5
sg19
g5
sg20
I101250
sg21
g5
sg22
g5
sg23
g5
sg24
g5
sg25
g5
sg26
g5
sg27
I27942
sS'mail_content_discussion_threads'
p751
I0
sg29
g5
sS'mail_content_all_documents'
p752
I0
ssS'STABLER FRANK'
p753
(dp754
g3
g5
sg4
g5
sg6
I16514
sS'mail_content_deleted_items'
p755
I0
sg8
I00
sg9
g5
sg10
S'frank.stabler@enron.com'
p756
sg12
g5
sS'mail_content_inbox'
p757
I0
sg14
g5
sS'mail_content_notes_inbox'
p758
I0
sg16
g5
sg17
g5
sg18
g5
sg19
I356071
sg20
g5
sg21
I500000
sg22
I511734
sg23
g5
sg24
g5
sg25
I511734
sg26
I239502
sg27
I1112087
sS'mail_content_discussion_threads'
p759
I0
sg29
g5
sS'mail_content_all_documents'
p760
I0
ssS'SKILLING JEFFREY K'
p761
(dp762
g3
I3627
sg4
g5
sg6
I29336
sS'mail_content_deleted_items'
p763
I0
sg8
I01
sg9
g5
sg10
S'jeff.skilling@enron.com'
p764
sg12
I1920000
sS'mail_content_inbox'
p765
I0
sg14
g5
sS'mail_content_notes_inbox'
p766
I1
sg16
I2042
sg17
g5
sg18
I108
sg19
I22122
sg20
g5
sg21
I5600000
sg22
I26093672
sg23
I88
sg24
I30
sg25
I6843672
sg26
I1111258
sg27
I8682716
sS'mail_content_discussion_threads'
p767
I12
sg29
I19250000
sS'mail_content_all_documents'
p768
I13
ssS'BLAKE JR. NORMAN P'
p769
(dp770
g3
g5
sg4
g5
sg6
I1279
sS'mail_content_deleted_items'
p771
I0
sg8
I00
sg9
I-113784
sg10
g5
sg12
g5
sS'mail_content_inbox'
p772
I0
sg14
g5
sS'mail_content_notes_inbox'
p773
I0
sg16
g5
sg17
g5
sg18
g5
sg19
g5
sg20
I113784
sg21
g5
sg22
g5
sg23
g5
sg24
g5
sg25
g5
sg26
g5
sg27
I1279
sS'mail_content_discussion_threads'
p774
I0
sg29
g5
sS'mail_content_all_documents'
p775
I0
ssS'SHERRICK JEFFREY B'
p776
(dp777
g3
I613
sg4
g5
sg6
g5
sS'mail_content_deleted_items'
p778
I0
sg8
I00
sg9
g5
sg10
S'jeffrey.sherrick@enron.com'
p779
sg12
g5
sS'mail_content_inbox'
p780
I4
sg14
g5
sS'mail_content_notes_inbox'
p781
I4
sg16
I583
sg17
g5
sg18
I25
sg19
g5
sg20
g5
sg21
g5
sg22
I1832468
sg23
I39
sg24
I18
sg25
I405999
sg26
g5
sg27
g5
sS'mail_content_discussion_threads'
p782
I5
sg29
I1426469
sS'mail_content_all_documents'
p783
I5
ssS'PRENTICE JAMES'
p784
(dp785
g3
g5
sg4
I564348
sg6
g5
sS'mail_content_deleted_items'
p786
I0
sg8
I00
sg9
g5
sg10
S'james.prentice@enron.com'
p787
sg12
g5
sS'mail_content_inbox'
p788
I0
sg14
g5
sS'mail_content_notes_inbox'
p789
I0
sg16
g5
sg17
g5
sg18
g5
sg19
g5
sg20
g5
sg21
g5
sg22
I1095040
sg23
g5
sg24
g5
sg25
I208809
sg26
g5
sg27
I564348
sS'mail_content_discussion_threads'
p790
I0
sg29
I886231
sS'mail_content_all_documents'
p791
I0
ssS'GRAY RODNEY'
p792
(dp793
g3
g5
sg4
I93585
sg6
g5
sS'mail_content_deleted_items'
p794
I0
sg8
I00
sg9
g5
sg10
g5
sg12
I365625
sS'mail_content_inbox'
p795
I0
sg14
g5
sS'mail_content_notes_inbox'
p796
I0
sg16
g5
sg17
g5
sg18
g5
sg19
I680833
sg20
g5
sg21
g5
sg22
g5
sg23
g5
sg24
g5
sg25
g5
sg26
I6615
sg27
I1146658
sS'mail_content_discussion_threads'
p797
I0
sg29
g5
sS'mail_content_all_documents'
p798
I0
ssS'PICKERING MARK R'
p799
(dp800
g3
I898
sg4
g5
sg6
I31653
sS'mail_content_deleted_items'
p801
I20
sg8
I00
sg9
g5
sg10
S'mark.pickering@enron.com'
p802
sg12
g5
sS'mail_content_inbox'
p803
I22
sg14
g5
sS'mail_content_notes_inbox'
p804
I0
sg16
I728
sg17
I400000
sg18
I67
sg19
g5
sg20
g5
sg21
I300000
sg22
I28798
sg23
I7
sg24
I0
sg25
g5
sg26
I655037
sg27
I1386690
sS'mail_content_discussion_threads'
p805
I1
sg29
I28798
sS'mail_content_all_documents'
p806
I1
ssS'THE TRAVEL AGENCY IN THE PARK'
p807
(dp808
g3
g5
sg4
g5
sg6
g5
sS'mail_content_deleted_items'
p809
I0
sg8
I00
sg9
g5
sg10
g5
sg12
g5
sS'mail_content_inbox'
p810
I0
sg14
g5
sS'mail_content_notes_inbox'
p811
I0
sg16
g5
sg17
g5
sg18
g5
sg19
I362096
sg20
g5
sg21
g5
sg22
g5
sg23
g5
sg24
g5
sg25
g5
sg26
g5
sg27
I362096
sS'mail_content_discussion_threads'
p812
I0
sg29
g5
sS'mail_content_all_documents'
p813
I0
ssS'NOLES JAMES L'
p814
(dp815
g3
g5
sg4
I774401
sg6
g5
sS'mail_content_deleted_items'
p816
I0
sg8
I00
sg9
g5
sg10
g5
sg12
g5
sS'mail_content_inbox'
p817
I0
sg14
I-94556
sS'mail_content_notes_inbox'
p818
I0
sg16
g5
sg17
g5
sg18
g5
sg19
g5
sg20
g5
sg21
g5
sg22
I368705
sg23
g5
sg24
g5
sg25
I463261
sg26
g5
sg27
I774401
sS'mail_content_discussion_threads'
p819
I0
sg29
g5
sS'mail_content_all_documents'
p820
I0
ssS'KEAN STEVEN J'
p821
(dp822
g3
I12754
sg4
g5
sg6
I41953
sS'mail_content_deleted_items'
p823
I5
sg8
I00
sg9
g5
sg10
S'steven.kean@enron.com'
p824
sg12
I300000
sS'mail_content_inbox'
p825
I2
sg14
g5
sS'mail_content_notes_inbox'
p826
I70
sg16
I3639
sg17
g5
sg18
I6759
sg19
I1231
sg20
g5
sg21
I1000000
sg22
I6153642
sg23
I140
sg24
I387
sg25
I4131594
sg26
I404338
sg27
I1747522
sS'mail_content_discussion_threads'
p827
I950
sg29
I2022048
sS'mail_content_all_documents'
p828
I1388
ssS'FOWLER PEGGY'
p829
(dp830
g3
I517
sg4
g5
sg6
g5
sS'mail_content_deleted_items'
p831
I12
sg8
I00
sg9
g5
sg10
S'kulvinder.fowler@enron.com'
p832
sg12
g5
sS'mail_content_inbox'
p833
I21
sg14
g5
sS'mail_content_notes_inbox'
p834
I0
sg16
I10
sg17
g5
sg18
I36
sg19
g5
sg20
g5
sg21
g5
sg22
I1884748
sg23
I0
sg24
I0
sg25
I560170
sg26
g5
sg27
g5
sS'mail_content_discussion_threads'
p835
I0
sg29
I1324578
sS'mail_content_all_documents'
p836
I0
ssS'WASAFF GEORGE'
p837
(dp838
g3
I400
sg4
I831299
sg6
g5
sS'mail_content_deleted_items'
p839
I0
sg8
I00
sg9
I-583325
sg10
S'george.wasaff@enron.com'
p840
sg12
I200000
sS'mail_content_inbox'
p841
I3
sg14
g5
sS'mail_content_notes_inbox'
p842
I1
sg16
I337
sg17
g5
sg18
I30
sg19
I1425
sg20
g5
sg21
I325000
sg22
I2056427
sg23
I22
sg24
I7
sg25
I388167
sg26
I259996
sg27
I1034395
sS'mail_content_discussion_threads'
p843
I3
sg29
I1668260
sS'mail_content_all_documents'
p844
I5
ssS'WHITE JR THOMAS E'
p845
(dp846
g3
g5
sg4
g5
sg6
I81353
sS'mail_content_deleted_items'
p847
I0
sg8
I00
sg9
g5
sg10
S'thomas.white@enron.com'
p848
sg12
g5
sS'mail_content_inbox'
p849
I0
sg14
g5
sS'mail_content_notes_inbox'
p850
I0
sg16
g5
sg17
g5
sg18
g5
sg19
I1085463
sg20
g5
sg21
I450000
sg22
I15144123
sg23
g5
sg24
g5
sg25
I13847074
sg26
I317543
sg27
I1934359
sS'mail_content_discussion_threads'
p851
I0
sg29
I1297049
sS'mail_content_all_documents'
p852
I0
ssS'CHRISTODOULOU DIOMEDES'
p853
(dp854
g3
g5
sg4
g5
sg6
g5
sS'mail_content_deleted_items'
p855
I0
sg8
I00
sg9
g5
sg10
S'diomedes.christodoulou@enron.com'
p856
sg12
g5
sS'mail_content_inbox'
p857
I0
sg14
g5
sS'mail_content_notes_inbox'
p858
I0
sg16
g5
sg17
g5
sg18
g5
sg19
g5
sg20
g5
sg21
g5
sg22
I6077885
sg23
g5
sg24
g5
sg25
I950730
sg26
g5
sg27
g5
sS'mail_content_discussion_threads'
p859
I0
sg29
I5127155
sS'mail_content_all_documents'
p860
I0
ssS'ALLEN PHILLIP K'
p861
(dp862
g3
I2902
sg4
I2869717
sg6
I13868
sS'mail_content_deleted_items'
p863
I0
sg8
I00
sg9
I-3081055
sg10
S'phillip.allen@enron.com'
p864
sg12
I304805
sS'mail_content_inbox'
p865
I0
sg14
I-126027
sS'mail_content_notes_inbox'
p866
I15
sg16
I1407
sg17
g5
sg18
I2195
sg19
I152
sg20
g5
sg21
I4175000
sg22
I1729541
sg23
I47
sg24
I65
sg25
I126027
sg26
I201955
sg27
I4484442
sS'mail_content_discussion_threads'
p867
I370
sg29
I1729541
sS'mail_content_all_documents'
p868
I587
ssS'SHARP VICTORIA T'
p869
(dp870
g3
I3136
sg4
I187469
sg6
I116337
sS'mail_content_deleted_items'
p871
I10
sg8
I00
sg9
g5
sg10
S'vicki.sharp@enron.com'
p872
sg12
I422158
sS'mail_content_inbox'
p873
I18
sg14
g5
sS'mail_content_notes_inbox'
p874
I40
sg16
I2477
sg17
g5
sg18
I136
sg19
I2401
sg20
g5
sg21
I600000
sg22
I494136
sg23
I24
sg24
I6
sg25
I213063
sg26
I248146
sg27
I1576511
sS'mail_content_discussion_threads'
p875
I3
sg29
I281073
sS'mail_content_all_documents'
p876
I46
ssS'JAEDICKE ROBERT'
p877
(dp878
g3
g5
sg4
g5
sg6
g5
sS'mail_content_deleted_items'
p879
I0
sg8
I00
sg9
I-25000
sg10
g5
sg12
g5
sS'mail_content_inbox'
p880
I0
sg14
I-44093
sS'mail_content_notes_inbox'
p881
I0
sg16
g5
sg17
g5
sg18
g5
sg19
g5
sg20
I108750
sg21
g5
sg22
I431750
sg23
g5
sg24
g5
sg25
I44093
sg26
g5
sg27
I83750
sS'mail_content_discussion_threads'
p882
I0
sg29
I431750
sS'mail_content_all_documents'
p883
I0
ssS'WINOKUR JR. HERBERT S'
p884
(dp885
g3
g5
sg4
g5
sg6
I1413
sS'mail_content_deleted_items'
p886
I0
sg8
I00
sg9
I-25000
sg10
g5
sg12
g5
sS'mail_content_inbox'
p887
I0
sg14
g5
sS'mail_content_notes_inbox'
p888
I0
sg16
g5
sg17
g5
sg18
g5
sg19
g5
sg20
I108579
sg21
g5
sg22
g5
sg23
g5
sg24
g5
sg25
g5
sg26
g5
sg27
I84992
sS'mail_content_discussion_threads'
p889
I0
sg29
g5
sS'mail_content_all_documents'
p890
I0
ssS'BROWN MICHAEL'
p891
(dp892
g3
I1486
sg4
g5
sg6
I49288
sS'mail_content_deleted_items'
p893
I0
sg8
I00
sg9
g5
sg10
S'michael.brown@enron.com'
p894
sg12
g5
sS'mail_content_inbox'
p895
I0
sg14
g5
sS'mail_content_notes_inbox'
p896
I7
sg16
I761
sg17
g5
sg18
I41
sg19
g5
sg20
g5
sg21
g5
sg22
g5
sg23
I13
sg24
I1
sg25
g5
sg26
g5
sg27
I49288
sS'mail_content_discussion_threads'
p897
I6
sg29
g5
sS'mail_content_all_documents'
p898
I16
ssS'BADUM JAMES P'
p899
(dp900
g3
g5
sg4
I178980
sg6
I3486
sS'mail_content_deleted_items'
p901
I0
sg8
I00
sg9
g5
sg10
g5
sg12
g5
sS'mail_content_inbox'
p902
I0
sg14
g5
sS'mail_content_notes_inbox'
p903
I0
sg16
g5
sg17
g5
sg18
g5
sg19
g5
sg20
g5
sg21
g5
sg22
I257817
sg23
g5
sg24
g5
sg25
g5
sg26
g5
sg27
I182466
sS'mail_content_discussion_threads'
p904
I0
sg29
I257817
sS'mail_content_all_documents'
p905
I0
ssS'HUGHES JAMES A'
p906
(dp907
g3
I719
sg4
g5
sg6
g5
sS'mail_content_deleted_items'
p908
I0
sg8
I00
sg9
g5
sg10
S'james.hughes@enron.com'
p909
sg12
g5
sS'mail_content_inbox'
p910
I0
sg14
g5
sS'mail_content_notes_inbox'
p911
I4
sg16
I589
sg17
g5
sg18
I34
sg19
g5
sg20
g5
sg21
g5
sg22
I1118394
sg23
I35
sg24
I5
sg25
I363428
sg26
g5
sg27
g5
sS'mail_content_discussion_threads'
p912
I8
sg29
I754966
sS'mail_content_all_documents'
p913
I9
ssS'REYNOLDS LAWRENCE'
p914
(dp915
g3
g5
sg4
I51365
sg6
I8409
sS'mail_content_deleted_items'
p916
I0
sg8
I00
sg9
I-200000
sg10
g5
sg12
I156250
sS'mail_content_inbox'
p917
I0
sg14
I-140264
sS'mail_content_notes_inbox'
p918
I0
sg16
g5
sg17
g5
sg18
g5
sg19
I202052
sg20
g5
sg21
I100000
sg22
I4221891
sg23
g5
sg24
g5
sg25
I201483
sg26
I76399
sg27
I394475
sS'mail_content_discussion_threads'
p919
I0
sg29
I4160672
sS'mail_content_all_documents'
p920
I0
ssS'DIMICHELE RICHARD G'
p921
(dp922
g3
g5
sg4
g5
sg6
I35812
sS'mail_content_deleted_items'
p923
I0
sg8
I00
sg9
g5
sg10
S'richard.dimichele@enron.com'
p924
sg12
I694862
sS'mail_content_inbox'
p925
I0
sg14
g5
sS'mail_content_notes_inbox'
p926
I0
sg16
g5
sg17
g5
sg18
g5
sg19
I374689
sg20
g5
sg21
I1000000
sg22
I8317782
sg23
g5
sg24
g5
sg25
I126027
sg26
I262788
sg27
I2368151
sS'mail_content_discussion_threads'
p927
I0
sg29
I8191755
sS'mail_content_all_documents'
p928
I0
ssS'BHATNAGAR SANJAY'
p929
(dp930
g3
I523
sg4
g5
sg6
g5
sS'mail_content_deleted_items'
p931
I0
sg8
I00
sg9
g5
sg10
S'sanjay.bhatnagar@enron.com'
p932
sg12
g5
sS'mail_content_inbox'
p933
I0
sg14
I15456290
sS'mail_content_notes_inbox'
p934
I5
sg16
I463
sg17
g5
sg18
I29
sg19
I137864
sg20
I137864
sg21
g5
sS'total_stock_value'
p935
S'NaN'
p936
sg23
I0
sg24
I1
sg25
I-2604490
sg26
g5
sg27
I15456290
sS'mail_content_discussion_threads'
p937
I6
sg29
I2604490
sS'mail_content_all_documents'
p938
I9
ssS'CARTER REBECCA C'
p939
(dp940
g3
I312
sg4
g5
sg6
g5
sS'mail_content_deleted_items'
p941
I1
sg8
I00
sg9
I-159792
sg10
S'rebecca.carter@enron.com'
p942
sg12
I75000
sS'mail_content_inbox'
p943
I4
sg14
I-307301
sS'mail_content_notes_inbox'
p944
I1
sg16
I196
sg17
g5
sg18
I15
sg19
I540
sg20
g5
sg21
I300000
sg22
g5
sg23
I29
sg24
I7
sg25
I307301
sg26
I261809
sg27
I477557
sS'mail_content_discussion_threads'
p945
I1
sg29
g5
sS'mail_content_all_documents'
p946
I1
ssS'BUCHANAN HAROLD G'
p947
(dp948
g3
I1088
sg4
g5
sg6
I600
sS'mail_content_deleted_items'
p949
I61
sg8
I00
sg9
g5
sg10
S'john.buchanan@enron.com'
p950
sg12
I304805
sS'mail_content_inbox'
p951
I33
sg14
g5
sS'mail_content_notes_inbox'
p952
I0
sg16
I23
sg17
g5
sg18
I125
sg19
I1215
sg20
g5
sg21
I500000
sg22
I1014505
sg23
I0
sg24
I0
sg25
I189041
sg26
I248017
sg27
I1054637
sS'mail_content_discussion_threads'
p953
I0
sg29
I825464
sS'mail_content_all_documents'
p954
I0
ssS'YEAP SOON'
p955
(dp956
g3
g5
sg4
g5
sg6
I55097
sS'mail_content_deleted_items'
p957
I0
sg8
I00
sg9
g5
sg10
g5
sg12
g5
sS'mail_content_inbox'
p958
I0
sg14
g5
sS'mail_content_notes_inbox'
p959
I0
sg16
g5
sg17
g5
sg18
g5
sg19
g5
sg20
g5
sg21
g5
sg22
I192758
sg23
g5
sg24
g5
sg25
g5
sg26
g5
sg27
I55097
sS'mail_content_discussion_threads'
p960
I0
sg29
I192758
sS'mail_content_all_documents'
p961
I0
ssS'MURRAY JULIA H'
p962
(dp963
g3
I2192
sg4
g5
sg6
I57580
sS'mail_content_deleted_items'
p964
I4
sg8
I00
sg9
g5
sg10
S'julia.murray@enron.com'
p965
sg12
I125000
sS'mail_content_inbox'
p966
I19
sg14
g5
sS'mail_content_notes_inbox'
p967
I7
sg16
I395
sg17
g5
sg18
I45
sg19
I330
sg20
g5
sg21
I400000
sg22
I597461
sg23
I11
sg24
I2
sg25
I196983
sg26
I229284
sg27
I812194
sS'mail_content_discussion_threads'
p968
I0
sg29
I400478
sS'mail_content_all_documents'
p969
I8
ssS'GARLAND C KEVIN'
p970
(dp971
g3
I209
sg4
g5
sg6
I48405
sS'mail_content_deleted_items'
p972
I1
sg8
I00
sg9
g5
sg10
S'kevin.garland@enron.com'
p973
sg12
I375304
sS'mail_content_inbox'
p974
I5
sg14
g5
sS'mail_content_notes_inbox'
p975
I6
sg16
I178
sg17
g5
sg18
I44
sg19
I60814
sg20
g5
sg21
I850000
sg22
I896153
sg23
I10
sg24
I27
sg25
I259907
sg26
I231946
sg27
I1566469
sS'mail_content_discussion_threads'
p976
I7
sg29
I636246
sS'mail_content_all_documents'
p977
I10
ssS'DODSON KEITH'
p978
(dp979
g3
I176
sg4
g5
sg6
I28164
sS'mail_content_deleted_items'
p980
I0
sg8
I00
sg9
g5
sg10
S'keith.dodson@enron.com'
p981
sg12
g5
sS'mail_content_inbox'
p982
I3
sg14
g5
sS'mail_content_notes_inbox'
p983
I1
sg16
I114
sg17
g5
sg18
I14
sg19
I774
sg20
g5
sg21
I70000
sg22
g5
sg23
I10
sg24
I3
sg25
g5
sg26
I221003
sg27
I319941
sS'mail_content_discussion_threads'
p984
I1
sg29
g5
sS'mail_content_all_documents'
p985
I1
ssS'YEAGER F SCOTT'
p986
(dp987
g3
g5
sg4
g5
sg6
I53947
sS'mail_content_deleted_items'
p988
I0
sg8
I01
sg9
g5
sg10
S'scott.yeager@enron.com'
p989
sg12
g5
sS'mail_content_inbox'
p990
I0
sg14
g5
sS'mail_content_notes_inbox'
p991
I0
sg16
g5
sg17
g5
sg18
g5
sg19
I147950
sg20
g5
sg21
g5
sg22
I11884758
sg23
g5
sg24
g5
sg25
I3576206
sg26
I158403
sg27
I360300
sS'mail_content_discussion_threads'
p992
I0
sg29
I8308552
sS'mail_content_all_documents'
p993
I0
ssS'HIRKO JOSEPH'
p994
(dp995
g3
g5
sg4
I10259
sg6
I77978
sS'mail_content_deleted_items'
p996
I0
sg8
I01
sg9
g5
sg10
S'joe.hirko@enron.com'
p997
sg12
g5
sS'mail_content_inbox'
p998
I0
sg14
g5
sS'mail_content_notes_inbox'
p999
I0
sg16
g5
sg17
g5
sg18
g5
sg19
I2856
sg20
g5
sg21
g5
sg22
I30766064
sg23
g5
sg24
g5
sg25
g5
sg26
g5
sg27
I91093
sS'mail_content_discussion_threads'
p1000
I0
sg29
I30766064
sS'mail_content_all_documents'
p1001
I0
ssS'DIETRICH JANET R'
p1002
(dp1003
g3
I2572
sg4
g5
sg6
I3475
sS'mail_content_deleted_items'
p1004
I6
sg8
I00
sg9
g5
sg10
S'janet.dietrich@enron.com'
p1005
sg12
I556416
sS'mail_content_inbox'
p1006
I16
sg14
g5
sS'mail_content_notes_inbox'
p1007
I2
sg16
I1902
sg17
g5
sg18
I63
sg19
I473
sg20
g5
sg21
I600000
sg22
I1865087
sg23
I305
sg24
I14
sg25
I315068
sg26
I250100
sg27
I1410464
sS'mail_content_discussion_threads'
p1008
I4
sg29
I1550019
sS'mail_content_all_documents'
p1009
I7
ssS'DERRICK JR. JAMES V'
p1010
(dp1011
g3
I2181
sg4
g5
sg6
I51124
sS'mail_content_deleted_items'
p1012
I8
sg8
I00
sg9
I-1284000
sg10
S'james.derrick@enron.com'
p1013
sg12
I484000
sS'mail_content_inbox'
p1014
I7
sg14
I-1787380
sS'mail_content_notes_inbox'
p1015
I1
sg16
I1401
sg17
g5
sg18
I909
sg19
I7482
sg20
g5
sg21
I800000
sg22
I8831913
sg23
I64
sg24
I20
sg25
I1787380
sg26
I492375
sg27
I550981
sS'mail_content_discussion_threads'
p1016
I32
sg29
I8831913
sS'mail_content_all_documents'
p1017
I56
ssS'FREVERT MARK A'
p1018
(dp1019
g3
I3275
sg4
I6426990
sg6
I86987
sS'mail_content_deleted_items'
p1020
I0
sg8
I00
sg9
I-3367011
sg10
S'mark.frevert@enron.com'
p1021
sg12
I1617011
sS'mail_content_inbox'
p1022
I1
sg14
g5
sS'mail_content_notes_inbox'
p1023
I4
sg16
I2979
sg17
I2000000
sg18
I21
sg19
I7427621
sg20
g5
sg21
I2000000
sg22
I14622185
sg23
I242
sg24
I6
sg25
I4188667
sg26
I1060932
sg27
I17252530
sS'mail_content_discussion_threads'
p1024
I3
sg29
I10433518
sS'mail_content_all_documents'
p1025
I4
ssS'PAI LOU L'
p1026
(dp1027
g3
g5
sg4
g5
sg6
I32047
sS'mail_content_deleted_items'
p1028
I0
sg8
I00
sg9
g5
sg10
S'lou.pai@enron.com'
p1029
sg12
g5
sS'mail_content_inbox'
p1030
I0
sg14
g5
sS'mail_content_notes_inbox'
p1031
I0
sg16
g5
sg17
g5
sg18
g5
sg19
I1829457
sg20
g5
sg21
I1000000
sg22
I23817930
sg23
g5
sg24
g5
sg25
I8453763
sg26
I261879
sg27
I3123383
sS'mail_content_discussion_threads'
p1032
I0
sg29
I15364167
sS'mail_content_all_documents'
p1033
I0
ssS'BAY FRANKLIN R'
p1034
(dp1035
g3
g5
sg4
I260455
sg6
I129142
sS'mail_content_deleted_items'
p1036
I0
sg8
I00
sg9
I-201641
sg10
S'frank.bay@enron.com'
p1037
sg12
g5
sS'mail_content_inbox'
p1038
I0
sg14
I-82782
sS'mail_content_notes_inbox'
p1039
I0
sg16
g5
sg17
g5
sg18
g5
sg19
I69
sg20
g5
sg21
I400000
sg22
I63014
sg23
g5
sg24
g5
sg25
I145796
sg26
I239671
sg27
I827696
sS'mail_content_discussion_threads'
p1040
I0
sg29
g5
sS'mail_content_all_documents'
p1041
I0
ssS'HAYSLETT RODERICK J'
p1042
(dp1043
g3
I2649
sg4
g5
sg6
g5
sS'mail_content_deleted_items'
p1044
I88
sg8
I00
sg9
g5
sg10
S'rod.hayslett@enron.com'
p1045
sg12
g5
sS'mail_content_inbox'
p1046
I140
sg14
g5
sS'mail_content_notes_inbox'
p1047
I0
sg16
I571
sg17
g5
sg18
I1061
sg19
g5
sg20
g5
sg21
g5
sg22
I346663
sg23
I35
sg24
I38
sg25
I346663
sg26
g5
sg27
g5
sS'mail_content_discussion_threads'
p1048
I73
sg29
g5
sS'mail_content_all_documents'
p1049
I92
ssS'FUGH JOHN L'
p1050
(dp1051
g3
g5
sg4
I50591
sg6
g5
sS'mail_content_deleted_items'
p1052
I0
sg8
I00
sg9
g5
sg10
g5
sg12
g5
sS'mail_content_inbox'
p1053
I0
sg14
g5
sS'mail_content_notes_inbox'
p1054
I0
sg16
g5
sg17
g5
sg18
g5
sg19
g5
sg20
g5
sg21
g5
sg22
I176378
sg23
g5
sg24
g5
sg25
g5
sg26
g5
sg27
I50591
sS'mail_content_discussion_threads'
p1055
I0
sg29
I176378
sS'mail_content_all_documents'
p1056
I0
ssS'FALLON JAMES B'
p1057
(dp1058
g3
I1755
sg4
g5
sg6
I95924
sS'mail_content_deleted_items'
p1059
I24
sg8
I00
sg9
g5
sg10
S'jim.fallon@enron.com'
p1060
sg12
I374347
sS'mail_content_inbox'
p1061
I32
sg14
g5
sS'mail_content_notes_inbox'
p1062
I3
sg16
I1604
sg17
g5
sg18
I75
sg19
I401481
sg20
g5
sg21
I2500000
sg22
I2332399
sg23
I42
sg24
I37
sg25
I1392142
sg26
I304588
sg27
I3676340
sS'mail_content_discussion_threads'
p1063
I2
sg29
I940257
sS'mail_content_all_documents'
p1064
I3
ssS'KOENIG MARK E'
p1065
(dp1066
g3
I2374
sg4
g5
sg6
I127017
sS'mail_content_deleted_items'
p1067
I6
sg8
I01
sg9
g5
sg10
S'mark.koenig@enron.com'
p1068
sg12
I300000
sS'mail_content_inbox'
p1069
I10
sg14
g5
sS'mail_content_notes_inbox'
p1070
I0
sg16
I2271
sg17
g5
sg18
I61
sg19
I150458
sg20
g5
sg21
I700000
sg22
I1920055
sg23
I53
sg24
I15
sg25
I1248318
sg26
I309946
sg27
I1587421
sS'mail_content_discussion_threads'
p1071
I7
sg29
I671737
sS'mail_content_all_documents'
p1072
I9
ssS'SAVAGE FRANK'
p1073
(dp1074
g3
g5
sg4
g5
sg6
g5
sS'mail_content_deleted_items'
p1075
I0
sg8
I00
sg9
I-121284
sg10
g5
sg12
g5
sS'mail_content_inbox'
p1076
I0
sg14
g5
sS'mail_content_notes_inbox'
p1077
I0
sg16
g5
sg17
g5
sg18
g5
sg19
g5
sg20
I125034
sg21
g5
sg22
g5
sg23
g5
sg24
g5
sg25
g5
sg26
g5
sg27
I3750
sS'mail_content_discussion_threads'
p1078
I0
sg29
g5
sS'mail_content_all_documents'
p1079
I0
ssS'IZZO LAWRENCE L'
p1080
(dp1081
g3
I496
sg4
g5
sg6
I28093
sS'mail_content_deleted_items'
p1082
I0
sg8
I00
sg9
g5
sg10
S'larry.izzo@enron.com'
p1083
sg12
I312500
sS'mail_content_inbox'
p1084
I0
sg14
g5
sS'mail_content_notes_inbox'
p1085
I4
sg16
I437
sg17
g5
sg18
I19
sg19
I1553729
sg20
g5
sg21
g5
sg22
I5819980
sg23
I28
sg24
I5
sg25
I3654808
sg26
I85274
sg27
I1979596
sS'mail_content_discussion_threads'
p1086
I5
sg29
I2165172
sS'mail_content_all_documents'
p1087
I6
ssS'TILNEY ELIZABETH A'
p1088
(dp1089
g3
I460
sg4
g5
sg6
g5
sS'mail_content_deleted_items'
p1090
I1
sg8
I00
sg9
I-575000
sg10
S'elizabeth.tilney@enron.com'
p1091
sg12
I275000
sS'mail_content_inbox'
p1092
I0
sg14
g5
sS'mail_content_notes_inbox'
p1093
I1
sg16
I379
sg17
g5
sg18
I19
sg19
I152055
sg20
g5
sg21
I300000
sg22
I1168042
sg23
I10
sg24
I11
sg25
I576792
sg26
I247338
sg27
I399393
sS'mail_content_discussion_threads'
p1094
I2
sg29
I591250
sS'mail_content_all_documents'
p1095
I2
ssS'MARTIN AMANDA K'
p1096
(dp1097
g3
I1522
sg4
I85430
sg6
I8211
sS'mail_content_deleted_items'
p1098
I7
sg8
I00
sg9
g5
sg10
S'a..martin@enron.com'
p1099
sg12
I5145434
sS'mail_content_inbox'
p1100
I4
sg14
g5
sS'mail_content_notes_inbox'
p1101
I0
sg16
I477
sg17
g5
sg18
I230
sg19
I2818454
sg20
g5
sg21
g5
sg22
I2070306
sg23
I8
sg24
I0
sg25
g5
sg26
I349487
sg27
I8407016
sS'mail_content_discussion_threads'
p1102
I0
sg29
I2070306
sS'mail_content_all_documents'
p1103
I0
ssS'BUY RICHARD B'
p1104
(dp1105
g3
I3523
sg4
I649584
sg6
g5
sS'mail_content_deleted_items'
p1106
I2
sg8
I00
sg9
I-694862
sg10
S'rick.buy@enron.com'
p1107
sg12
I769862
sS'mail_content_inbox'
p1108
I9
sg14
g5
sS'mail_content_notes_inbox'
p1109
I3
sg16
I2333
sg17
g5
sg18
I1053
sg19
I400572
sg20
g5
sg21
I900000
sg22
I3444470
sg23
I156
sg24
I71
sg25
I901657
sg26
I330546
sg27
I2355702
sS'mail_content_discussion_threads'
p1110
I102
sg29
I2542813
sS'mail_content_all_documents'
p1111
I188
ssS'GRAMM WENDY L'
p1112
(dp1113
g3
g5
sg4
g5
sg6
g5
sS'mail_content_deleted_items'
p1114
I0
sg8
I00
sg9
g5
sg10
g5
sg12
g5
sS'mail_content_inbox'
p1115
I0
sg14
g5
sS'mail_content_notes_inbox'
p1116
I0
sg16
g5
sg17
g5
sg18
g5
sg19
g5
sg20
I119292
sg21
g5
sg22
g5
sg23
g5
sg24
g5
sg25
g5
sg26
g5
sg27
I119292
sS'mail_content_discussion_threads'
p1117
I0
sg29
g5
sS'mail_content_all_documents'
p1118
I0
ssS'CAUSEY RICHARD A'
p1119
(dp1120
g3
I1892
sg4
g5
sg6
I30674
sS'mail_content_deleted_items'
p1121
I2
sg8
I01
sg9
I-235000
sg10
S'richard.causey@enron.com'
p1122
sg12
I350000
sS'mail_content_inbox'
p1123
I6
sg14
g5
sS'mail_content_notes_inbox'
p1124
I0
sg16
I1585
sg17
g5
sg18
I49
sg19
I307895
sg20
g5
sg21
I1000000
sg22
I2502063
sg23
I58
sg24
I12
sg25
I2502063
sg26
I415189
sg27
I1868758
sS'mail_content_discussion_threads'
p1125
I9
sg29
g5
sS'mail_content_all_documents'
p1126
I12
ssS'TAYLOR MITCHELL S'
p1127
(dp1128
g3
I533
sg4
I227449
sg6
g5
sS'mail_content_deleted_items'
p1129
I0
sg8
I00
sg9
g5
sg10
S'mitchell.taylor@enron.com'
p1130
sg12
g5
sS'mail_content_inbox'
p1131
I0
sg14
g5
sS'mail_content_notes_inbox'
p1132
I0
sg16
I300
sg17
g5
sg18
I29
sg19
g5
sg20
g5
sg21
I600000
sg22
I3745048
sg23
I0
sg24
I0
sg25
I563798
sg26
I265214
sg27
I1092663
sS'mail_content_discussion_threads'
p1133
I4
sg29
I3181250
sS'mail_content_all_documents'
p1134
I5
ssS'DONAHUE JR JEFFREY M'
p1135
(dp1136
g3
I865
sg4
g5
sg6
I96268
sS'mail_content_deleted_items'
p1137
I2
sg8
I00
sg9
I-300000
sg10
S'jeff.donahue@enron.com'
p1138
sg12
g5
sS'mail_content_inbox'
p1139
I13
sg14
g5
sS'mail_content_notes_inbox'
p1140
I0
sg16
I772
sg17
g5
sg18
I22
sg19
I891
sg20
g5
sg21
I800000
sg22
I1080988
sg23
I188
sg24
I11
sg25
I315068
sg26
I278601
sg27
I875760
sS'mail_content_discussion_threads'
p1141
I0
sg29
I765920
sS'mail_content_all_documents'
p1142
I0
ssS'GLISAN JR BEN F'
p1143
(dp1144
g3
I873
sg4
g5
sg6
I125978
sS'mail_content_deleted_items'
p1145
I0
sg8
I01
sg9
g5
sg10
S'ben.glisan@enron.com'
p1146
sg12
I71023
sS'mail_content_inbox'
p1147
I2
sg14
g5
sS'mail_content_notes_inbox'
p1148
I2
sg16
I874
sg17
g5
sg18
I16
sg19
I200308
sg20
g5
sg21
I600000
sg22
I778546
sg23
I52
sg24
I6
sg25
I393818
sg26
I274975
sg27
I1272284
sS'mail_content_discussion_threads'
p1149
I2
sg29
I384728
sS'mail_content_all_documents'
p1150
I3
ss.