(lp0
S'poi'
p1
aS'salary'
p2
aS'to_messages'
p3
aS'total_payments'
p4
aS'bonus'
p5
aS'restricted_stock'
p6
aS'shared_receipt_with_poi'
p7
aS'total_stock_value'
p8
aS'expenses'
p9
aS'other'
p10
aS'from_this_person_to_poi'
p11
aS'from_poi_to_this_person'
p12
aS'mail_content_discussion_threads'
p13
aS'mail_content_deleted_items'
p14
aS'mail_content_all_documents'
p15
aS'mail_content_notes_inbox'
p16
aS'mail_content_inbox'
p17
a.